
vuln.exe:     file format pei-i386


Disassembly of section .text:

00401000 <___mingw_invalidParameterHandler>:
  401000:	c3                   	ret    
  401001:	8d b4 26 00 00 00 00 	lea    0x0(%esi,%eiz,1),%esi
  401008:	8d b4 26 00 00 00 00 	lea    0x0(%esi,%eiz,1),%esi
  40100f:	90                   	nop

00401010 <_pre_c_init>:
  401010:	83 ec 1c             	sub    $0x1c,%esp
  401013:	31 c0                	xor    %eax,%eax
  401015:	66 81 3d 00 00 40 00 	cmpw   $0x5a4d,0x400000
  40101c:	4d 5a 
  40101e:	c7 05 8c 53 40 00 01 	movl   $0x1,0x40538c
  401025:	00 00 00 
  401028:	c7 05 88 53 40 00 01 	movl   $0x1,0x405388
  40102f:	00 00 00 
  401032:	c7 05 84 53 40 00 01 	movl   $0x1,0x405384
  401039:	00 00 00 
  40103c:	c7 05 28 50 40 00 01 	movl   $0x1,0x405028
  401043:	00 00 00 
  401046:	75 18                	jne    401060 <_pre_c_init+0x50>
  401048:	8b 15 3c 00 40 00    	mov    0x40003c,%edx
  40104e:	81 ba 00 00 40 00 50 	cmpl   $0x4550,0x400000(%edx)
  401055:	45 00 00 
  401058:	8d 8a 00 00 40 00    	lea    0x400000(%edx),%ecx
  40105e:	74 50                	je     4010b0 <_pre_c_init+0xa0>
  401060:	a3 0c 50 40 00       	mov    %eax,0x40500c
  401065:	a1 94 53 40 00       	mov    0x405394,%eax
  40106a:	85 c0                	test   %eax,%eax
  40106c:	75 32                	jne    4010a0 <_pre_c_init+0x90>
  40106e:	c7 04 24 01 00 00 00 	movl   $0x1,(%esp)
  401075:	e8 b2 16 00 00       	call   40272c <___set_app_type>
  40107a:	e8 b5 16 00 00       	call   402734 <___p__fmode>
  40107f:	8b 15 a8 53 40 00    	mov    0x4053a8,%edx
  401085:	89 10                	mov    %edx,(%eax)
  401087:	e8 74 06 00 00       	call   401700 <__setargv>
  40108c:	83 3d 18 30 40 00 01 	cmpl   $0x1,0x403018
  401093:	74 4b                	je     4010e0 <_pre_c_init+0xd0>
  401095:	31 c0                	xor    %eax,%eax
  401097:	83 c4 1c             	add    $0x1c,%esp
  40109a:	c3                   	ret    
  40109b:	8d 74 26 00          	lea    0x0(%esi,%eiz,1),%esi
  40109f:	90                   	nop
  4010a0:	c7 04 24 02 00 00 00 	movl   $0x2,(%esp)
  4010a7:	e8 80 16 00 00       	call   40272c <___set_app_type>
  4010ac:	eb cc                	jmp    40107a <_pre_c_init+0x6a>
  4010ae:	66 90                	xchg   %ax,%ax
  4010b0:	0f b7 51 18          	movzwl 0x18(%ecx),%edx
  4010b4:	66 81 fa 0b 01       	cmp    $0x10b,%dx
  4010b9:	74 3d                	je     4010f8 <_pre_c_init+0xe8>
  4010bb:	66 81 fa 0b 02       	cmp    $0x20b,%dx
  4010c0:	75 9e                	jne    401060 <_pre_c_init+0x50>
  4010c2:	83 b9 84 00 00 00 0e 	cmpl   $0xe,0x84(%ecx)
  4010c9:	76 95                	jbe    401060 <_pre_c_init+0x50>
  4010cb:	8b 91 f8 00 00 00    	mov    0xf8(%ecx),%edx
  4010d1:	31 c0                	xor    %eax,%eax
  4010d3:	85 d2                	test   %edx,%edx
  4010d5:	0f 95 c0             	setne  %al
  4010d8:	eb 86                	jmp    401060 <_pre_c_init+0x50>
  4010da:	8d b6 00 00 00 00    	lea    0x0(%esi),%esi
  4010e0:	c7 04 24 60 19 40 00 	movl   $0x401960,(%esp)
  4010e7:	e8 84 0d 00 00       	call   401e70 <___mingw_setusermatherr>
  4010ec:	31 c0                	xor    %eax,%eax
  4010ee:	83 c4 1c             	add    $0x1c,%esp
  4010f1:	c3                   	ret    
  4010f2:	8d b6 00 00 00 00    	lea    0x0(%esi),%esi
  4010f8:	83 79 74 0e          	cmpl   $0xe,0x74(%ecx)
  4010fc:	0f 86 5e ff ff ff    	jbe    401060 <_pre_c_init+0x50>
  401102:	8b 89 e8 00 00 00    	mov    0xe8(%ecx),%ecx
  401108:	31 c0                	xor    %eax,%eax
  40110a:	85 c9                	test   %ecx,%ecx
  40110c:	0f 95 c0             	setne  %al
  40110f:	e9 4c ff ff ff       	jmp    401060 <_pre_c_init+0x50>
  401114:	8d b4 26 00 00 00 00 	lea    0x0(%esi,%eiz,1),%esi
  40111b:	8d 74 26 00          	lea    0x0(%esi,%eiz,1),%esi
  40111f:	90                   	nop

00401120 <_pre_cpp_init>:
  401120:	83 ec 2c             	sub    $0x2c,%esp
  401123:	a1 80 53 40 00       	mov    0x405380,%eax
  401128:	c7 44 24 10 04 50 40 	movl   $0x405004,0x10(%esp)
  40112f:	00 
  401130:	a3 04 50 40 00       	mov    %eax,0x405004
  401135:	a1 24 50 40 00       	mov    0x405024,%eax
  40113a:	c7 44 24 08 14 50 40 	movl   $0x405014,0x8(%esp)
  401141:	00 
  401142:	89 44 24 0c          	mov    %eax,0xc(%esp)
  401146:	c7 44 24 04 18 50 40 	movl   $0x405018,0x4(%esp)
  40114d:	00 
  40114e:	c7 04 24 1c 50 40 00 	movl   $0x40501c,(%esp)
  401155:	e8 ea 15 00 00       	call   402744 <___getmainargs>
  40115a:	83 c4 2c             	add    $0x2c,%esp
  40115d:	c3                   	ret    
  40115e:	66 90                	xchg   %ax,%ax

00401160 <___tmainCRTStartup>:
  401160:	8d 4c 24 04          	lea    0x4(%esp),%ecx
  401164:	83 e4 f0             	and    $0xfffffff0,%esp
  401167:	31 c0                	xor    %eax,%eax
  401169:	ff 71 fc             	pushl  -0x4(%ecx)
  40116c:	55                   	push   %ebp
  40116d:	89 e5                	mov    %esp,%ebp
  40116f:	57                   	push   %edi
  401170:	56                   	push   %esi
  401171:	8d 55 a4             	lea    -0x5c(%ebp),%edx
  401174:	53                   	push   %ebx
  401175:	89 d7                	mov    %edx,%edi
  401177:	51                   	push   %ecx
  401178:	b9 11 00 00 00       	mov    $0x11,%ecx
  40117d:	83 ec 78             	sub    $0x78,%esp
  401180:	8b 35 94 53 40 00    	mov    0x405394,%esi
  401186:	f3 ab                	rep stos %eax,%es:(%edi)
  401188:	85 f6                	test   %esi,%esi
  40118a:	0f 85 a0 02 00 00    	jne    401430 <___tmainCRTStartup+0x2d0>
  401190:	64 a1 18 00 00 00    	mov    %fs:0x18,%eax
  401196:	8b 35 40 61 40 00    	mov    0x406140,%esi
  40119c:	8b 78 04             	mov    0x4(%eax),%edi
  40119f:	31 db                	xor    %ebx,%ebx
  4011a1:	eb 19                	jmp    4011bc <___tmainCRTStartup+0x5c>
  4011a3:	8d 74 26 00          	lea    0x0(%esi,%eiz,1),%esi
  4011a7:	90                   	nop
  4011a8:	39 c7                	cmp    %eax,%edi
  4011aa:	0f 84 18 02 00 00    	je     4013c8 <___tmainCRTStartup+0x268>
  4011b0:	c7 04 24 e8 03 00 00 	movl   $0x3e8,(%esp)
  4011b7:	ff d6                	call   *%esi
  4011b9:	83 ec 04             	sub    $0x4,%esp
  4011bc:	89 d8                	mov    %ebx,%eax
  4011be:	f0 0f b1 3d e0 53 40 	lock cmpxchg %edi,0x4053e0
  4011c5:	00 
  4011c6:	85 c0                	test   %eax,%eax
  4011c8:	75 de                	jne    4011a8 <___tmainCRTStartup+0x48>
  4011ca:	a1 e4 53 40 00       	mov    0x4053e4,%eax
  4011cf:	31 db                	xor    %ebx,%ebx
  4011d1:	83 f8 01             	cmp    $0x1,%eax
  4011d4:	0f 84 01 02 00 00    	je     4013db <___tmainCRTStartup+0x27b>
  4011da:	a1 e4 53 40 00       	mov    0x4053e4,%eax
  4011df:	85 c0                	test   %eax,%eax
  4011e1:	0f 84 79 02 00 00    	je     401460 <___tmainCRTStartup+0x300>
  4011e7:	c7 05 08 50 40 00 01 	movl   $0x1,0x405008
  4011ee:	00 00 00 
  4011f1:	a1 e4 53 40 00       	mov    0x4053e4,%eax
  4011f6:	83 f8 01             	cmp    $0x1,%eax
  4011f9:	0f 84 f6 01 00 00    	je     4013f5 <___tmainCRTStartup+0x295>
  4011ff:	85 db                	test   %ebx,%ebx
  401201:	0f 84 14 02 00 00    	je     40141b <___tmainCRTStartup+0x2bb>
  401207:	a1 54 40 40 00       	mov    0x404054,%eax
  40120c:	85 c0                	test   %eax,%eax
  40120e:	74 1c                	je     40122c <___tmainCRTStartup+0xcc>
  401210:	c7 44 24 08 00 00 00 	movl   $0x0,0x8(%esp)
  401217:	00 
  401218:	c7 44 24 04 02 00 00 	movl   $0x2,0x4(%esp)
  40121f:	00 
  401220:	c7 04 24 00 00 00 00 	movl   $0x0,(%esp)
  401227:	ff d0                	call   *%eax
  401229:	83 ec 0c             	sub    $0xc,%esp
  40122c:	e8 5f 09 00 00       	call   401b90 <__pei386_runtime_relocator>
  401231:	c7 04 24 80 1e 40 00 	movl   $0x401e80,(%esp)
  401238:	ff 15 3c 61 40 00    	call   *0x40613c
  40123e:	83 ec 04             	sub    $0x4,%esp
  401241:	a3 ac 53 40 00       	mov    %eax,0x4053ac
  401246:	c7 04 24 00 10 40 00 	movl   $0x401000,(%esp)
  40124d:	e8 1e 15 00 00       	call   402770 <__set_invalid_parameter_handler>
  401252:	e8 89 07 00 00       	call   4019e0 <__fpreset>
  401257:	c7 05 dc 53 40 00 00 	movl   $0x400000,0x4053dc
  40125e:	00 40 00 
  401261:	e8 d6 14 00 00       	call   40273c <___p__acmdln>
  401266:	31 c9                	xor    %ecx,%ecx
  401268:	8b 00                	mov    (%eax),%eax
  40126a:	85 c0                	test   %eax,%eax
  40126c:	75 13                	jne    401281 <___tmainCRTStartup+0x121>
  40126e:	eb 4d                	jmp    4012bd <___tmainCRTStartup+0x15d>
  401270:	84 d2                	test   %dl,%dl
  401272:	74 44                	je     4012b8 <___tmainCRTStartup+0x158>
  401274:	83 e1 01             	and    $0x1,%ecx
  401277:	74 27                	je     4012a0 <___tmainCRTStartup+0x140>
  401279:	b9 01 00 00 00       	mov    $0x1,%ecx
  40127e:	83 c0 01             	add    $0x1,%eax
  401281:	0f b6 10             	movzbl (%eax),%edx
  401284:	80 fa 20             	cmp    $0x20,%dl
  401287:	7e e7                	jle    401270 <___tmainCRTStartup+0x110>
  401289:	89 cb                	mov    %ecx,%ebx
  40128b:	83 f3 01             	xor    $0x1,%ebx
  40128e:	80 fa 22             	cmp    $0x22,%dl
  401291:	0f 44 cb             	cmove  %ebx,%ecx
  401294:	eb e8                	jmp    40127e <___tmainCRTStartup+0x11e>
  401296:	8d b4 26 00 00 00 00 	lea    0x0(%esi,%eiz,1),%esi
  40129d:	8d 76 00             	lea    0x0(%esi),%esi
  4012a0:	84 d2                	test   %dl,%dl
  4012a2:	74 14                	je     4012b8 <___tmainCRTStartup+0x158>
  4012a4:	8d 74 26 00          	lea    0x0(%esi,%eiz,1),%esi
  4012a8:	0f b6 50 01          	movzbl 0x1(%eax),%edx
  4012ac:	83 c0 01             	add    $0x1,%eax
  4012af:	84 d2                	test   %dl,%dl
  4012b1:	74 05                	je     4012b8 <___tmainCRTStartup+0x158>
  4012b3:	80 fa 20             	cmp    $0x20,%dl
  4012b6:	7e f0                	jle    4012a8 <___tmainCRTStartup+0x148>
  4012b8:	a3 d8 53 40 00       	mov    %eax,0x4053d8
  4012bd:	8b 1d 94 53 40 00    	mov    0x405394,%ebx
  4012c3:	85 db                	test   %ebx,%ebx
  4012c5:	74 14                	je     4012db <___tmainCRTStartup+0x17b>
  4012c7:	b8 0a 00 00 00       	mov    $0xa,%eax
  4012cc:	f6 45 d0 01          	testb  $0x1,-0x30(%ebp)
  4012d0:	0f 85 e2 00 00 00    	jne    4013b8 <___tmainCRTStartup+0x258>
  4012d6:	a3 00 30 40 00       	mov    %eax,0x403000
  4012db:	8b 1d 1c 50 40 00    	mov    0x40501c,%ebx
  4012e1:	8d 34 9d 04 00 00 00 	lea    0x4(,%ebx,4),%esi
  4012e8:	89 34 24             	mov    %esi,(%esp)
  4012eb:	e8 bc 13 00 00       	call   4026ac <_malloc>
  4012f0:	8b 15 18 50 40 00    	mov    0x405018,%edx
  4012f6:	89 45 90             	mov    %eax,-0x70(%ebp)
  4012f9:	85 db                	test   %ebx,%ebx
  4012fb:	0f 8e 82 01 00 00    	jle    401483 <___tmainCRTStartup+0x323>
  401301:	89 c3                	mov    %eax,%ebx
  401303:	8d 46 fc             	lea    -0x4(%esi),%eax
  401306:	89 d7                	mov    %edx,%edi
  401308:	89 45 8c             	mov    %eax,-0x74(%ebp)
  40130b:	01 d0                	add    %edx,%eax
  40130d:	89 45 94             	mov    %eax,-0x6c(%ebp)
  401310:	8b 07                	mov    (%edi),%eax
  401312:	83 c3 04             	add    $0x4,%ebx
  401315:	83 c7 04             	add    $0x4,%edi
  401318:	89 04 24             	mov    %eax,(%esp)
  40131b:	e8 5c 13 00 00       	call   40267c <_strlen>
  401320:	8d 70 01             	lea    0x1(%eax),%esi
  401323:	89 34 24             	mov    %esi,(%esp)
  401326:	e8 81 13 00 00       	call   4026ac <_malloc>
  40132b:	89 43 fc             	mov    %eax,-0x4(%ebx)
  40132e:	8b 4f fc             	mov    -0x4(%edi),%ecx
  401331:	89 74 24 08          	mov    %esi,0x8(%esp)
  401335:	89 4c 24 04          	mov    %ecx,0x4(%esp)
  401339:	89 04 24             	mov    %eax,(%esp)
  40133c:	e8 63 13 00 00       	call   4026a4 <_memcpy>
  401341:	39 7d 94             	cmp    %edi,-0x6c(%ebp)
  401344:	75 ca                	jne    401310 <___tmainCRTStartup+0x1b0>
  401346:	8b 45 8c             	mov    -0x74(%ebp),%eax
  401349:	03 45 90             	add    -0x70(%ebp),%eax
  40134c:	c7 00 00 00 00 00    	movl   $0x0,(%eax)
  401352:	8b 45 90             	mov    -0x70(%ebp),%eax
  401355:	a3 18 50 40 00       	mov    %eax,0x405018
  40135a:	e8 71 03 00 00       	call   4016d0 <___main>
  40135f:	a1 14 50 40 00       	mov    0x405014,%eax
  401364:	8b 15 60 61 40 00    	mov    0x406160,%edx
  40136a:	89 02                	mov    %eax,(%edx)
  40136c:	89 44 24 08          	mov    %eax,0x8(%esp)
  401370:	a1 18 50 40 00       	mov    0x405018,%eax
  401375:	89 44 24 04          	mov    %eax,0x4(%esp)
  401379:	a1 1c 50 40 00       	mov    0x40501c,%eax
  40137e:	89 04 24             	mov    %eax,(%esp)
  401381:	e8 49 02 00 00       	call   4015cf <_main>
  401386:	8b 0d 0c 50 40 00    	mov    0x40500c,%ecx
  40138c:	a3 10 50 40 00       	mov    %eax,0x405010
  401391:	85 c9                	test   %ecx,%ecx
  401393:	0f 84 f2 00 00 00    	je     40148b <___tmainCRTStartup+0x32b>
  401399:	8b 15 08 50 40 00    	mov    0x405008,%edx
  40139f:	85 d2                	test   %edx,%edx
  4013a1:	0f 84 a1 00 00 00    	je     401448 <___tmainCRTStartup+0x2e8>
  4013a7:	8d 65 f0             	lea    -0x10(%ebp),%esp
  4013aa:	59                   	pop    %ecx
  4013ab:	5b                   	pop    %ebx
  4013ac:	5e                   	pop    %esi
  4013ad:	5f                   	pop    %edi
  4013ae:	5d                   	pop    %ebp
  4013af:	8d 61 fc             	lea    -0x4(%ecx),%esp
  4013b2:	c3                   	ret    
  4013b3:	8d 74 26 00          	lea    0x0(%esi,%eiz,1),%esi
  4013b7:	90                   	nop
  4013b8:	0f b7 45 d4          	movzwl -0x2c(%ebp),%eax
  4013bc:	e9 15 ff ff ff       	jmp    4012d6 <___tmainCRTStartup+0x176>
  4013c1:	8d b4 26 00 00 00 00 	lea    0x0(%esi,%eiz,1),%esi
  4013c8:	a1 e4 53 40 00       	mov    0x4053e4,%eax
  4013cd:	bb 01 00 00 00       	mov    $0x1,%ebx
  4013d2:	83 f8 01             	cmp    $0x1,%eax
  4013d5:	0f 85 ff fd ff ff    	jne    4011da <___tmainCRTStartup+0x7a>
  4013db:	c7 04 24 1f 00 00 00 	movl   $0x1f,(%esp)
  4013e2:	e8 35 13 00 00       	call   40271c <__amsg_exit>
  4013e7:	a1 e4 53 40 00       	mov    0x4053e4,%eax
  4013ec:	83 f8 01             	cmp    $0x1,%eax
  4013ef:	0f 85 0a fe ff ff    	jne    4011ff <___tmainCRTStartup+0x9f>
  4013f5:	c7 44 24 04 08 70 40 	movl   $0x407008,0x4(%esp)
  4013fc:	00 
  4013fd:	c7 04 24 00 70 40 00 	movl   $0x407000,(%esp)
  401404:	e8 03 13 00 00       	call   40270c <__initterm>
  401409:	c7 05 e4 53 40 00 02 	movl   $0x2,0x4053e4
  401410:	00 00 00 
  401413:	85 db                	test   %ebx,%ebx
  401415:	0f 85 ec fd ff ff    	jne    401207 <___tmainCRTStartup+0xa7>
  40141b:	87 1d e0 53 40 00    	xchg   %ebx,0x4053e0
  401421:	e9 e1 fd ff ff       	jmp    401207 <___tmainCRTStartup+0xa7>
  401426:	8d b4 26 00 00 00 00 	lea    0x0(%esi,%eiz,1),%esi
  40142d:	8d 76 00             	lea    0x0(%esi),%esi
  401430:	89 14 24             	mov    %edx,(%esp)
  401433:	ff 15 24 61 40 00    	call   *0x406124
  401439:	83 ec 04             	sub    $0x4,%esp
  40143c:	e9 4f fd ff ff       	jmp    401190 <___tmainCRTStartup+0x30>
  401441:	8d b4 26 00 00 00 00 	lea    0x0(%esi,%eiz,1),%esi
  401448:	e8 c7 12 00 00       	call   402714 <__cexit>
  40144d:	a1 10 50 40 00       	mov    0x405010,%eax
  401452:	8d 65 f0             	lea    -0x10(%ebp),%esp
  401455:	59                   	pop    %ecx
  401456:	5b                   	pop    %ebx
  401457:	5e                   	pop    %esi
  401458:	5f                   	pop    %edi
  401459:	5d                   	pop    %ebp
  40145a:	8d 61 fc             	lea    -0x4(%ecx),%esp
  40145d:	c3                   	ret    
  40145e:	66 90                	xchg   %ax,%ax
  401460:	c7 44 24 04 18 70 40 	movl   $0x407018,0x4(%esp)
  401467:	00 
  401468:	c7 04 24 0c 70 40 00 	movl   $0x40700c,(%esp)
  40146f:	c7 05 e4 53 40 00 01 	movl   $0x1,0x4053e4
  401476:	00 00 00 
  401479:	e8 8e 12 00 00       	call   40270c <__initterm>
  40147e:	e9 6e fd ff ff       	jmp    4011f1 <___tmainCRTStartup+0x91>
  401483:	8b 45 90             	mov    -0x70(%ebp),%eax
  401486:	e9 c1 fe ff ff       	jmp    40134c <___tmainCRTStartup+0x1ec>
  40148b:	89 04 24             	mov    %eax,(%esp)
  40148e:	e8 59 12 00 00       	call   4026ec <_exit>
  401493:	8d b4 26 00 00 00 00 	lea    0x0(%esi,%eiz,1),%esi
  40149a:	8d b6 00 00 00 00    	lea    0x0(%esi),%esi

004014a0 <_WinMainCRTStartup>:
  4014a0:	83 ec 0c             	sub    $0xc,%esp
  4014a3:	c7 05 94 53 40 00 01 	movl   $0x1,0x405394
  4014aa:	00 00 00 
  4014ad:	e8 5e 02 00 00       	call   401710 <___security_init_cookie>
  4014b2:	83 c4 0c             	add    $0xc,%esp
  4014b5:	e9 a6 fc ff ff       	jmp    401160 <___tmainCRTStartup>
  4014ba:	8d b6 00 00 00 00    	lea    0x0(%esi),%esi

004014c0 <_mainCRTStartup>:
  4014c0:	83 ec 0c             	sub    $0xc,%esp
  4014c3:	c7 05 94 53 40 00 00 	movl   $0x0,0x405394
  4014ca:	00 00 00 
  4014cd:	e8 3e 02 00 00       	call   401710 <___security_init_cookie>
  4014d2:	83 c4 0c             	add    $0xc,%esp
  4014d5:	e9 86 fc ff ff       	jmp    401160 <___tmainCRTStartup>
  4014da:	8d b6 00 00 00 00    	lea    0x0(%esi),%esi

004014e0 <_atexit>:
  4014e0:	83 ec 1c             	sub    $0x1c,%esp
  4014e3:	8b 44 24 20          	mov    0x20(%esp),%eax
  4014e7:	89 04 24             	mov    %eax,(%esp)
  4014ea:	e8 15 12 00 00       	call   402704 <__onexit>
  4014ef:	85 c0                	test   %eax,%eax
  4014f1:	0f 94 c0             	sete   %al
  4014f4:	83 c4 1c             	add    $0x1c,%esp
  4014f7:	0f b6 c0             	movzbl %al,%eax
  4014fa:	f7 d8                	neg    %eax
  4014fc:	c3                   	ret    
  4014fd:	90                   	nop
  4014fe:	90                   	nop
  4014ff:	90                   	nop

00401500 <___gcc_register_frame>:
  401500:	55                   	push   %ebp
  401501:	89 e5                	mov    %esp,%ebp
  401503:	83 ec 18             	sub    $0x18,%esp
  401506:	c7 04 24 20 15 40 00 	movl   $0x401520,(%esp)
  40150d:	e8 ce ff ff ff       	call   4014e0 <_atexit>
  401512:	c9                   	leave  
  401513:	c3                   	ret    
  401514:	8d b4 26 00 00 00 00 	lea    0x0(%esi,%eiz,1),%esi
  40151b:	8d 74 26 00          	lea    0x0(%esi,%eiz,1),%esi
  40151f:	90                   	nop

00401520 <___gcc_deregister_frame>:
  401520:	c3                   	ret    
  401521:	90                   	nop
  401522:	90                   	nop
  401523:	90                   	nop
  401524:	90                   	nop
  401525:	90                   	nop
  401526:	90                   	nop
  401527:	90                   	nop
  401528:	90                   	nop
  401529:	90                   	nop
  40152a:	90                   	nop
  40152b:	90                   	nop
  40152c:	90                   	nop
  40152d:	90                   	nop
  40152e:	90                   	nop
  40152f:	90                   	nop

00401530 <_win>:
  401530:	55                   	push   %ebp
  401531:	89 e5                	mov    %esp,%ebp
  401533:	83 ec 68             	sub    $0x68,%esp
  401536:	c7 44 24 04 00 40 40 	movl   $0x404000,0x4(%esp)
  40153d:	00 
  40153e:	c7 04 24 02 40 40 00 	movl   $0x404002,(%esp)
  401545:	e8 8a 11 00 00       	call   4026d4 <_fopen>
  40154a:	89 45 f4             	mov    %eax,-0xc(%ebp)
  40154d:	83 7d f4 00          	cmpl   $0x0,-0xc(%ebp)
  401551:	75 18                	jne    40156b <_win+0x3b>
  401553:	c7 04 24 0c 40 40 00 	movl   $0x40400c,(%esp)
  40155a:	e8 35 11 00 00       	call   402694 <_puts>
  40155f:	c7 04 24 00 00 00 00 	movl   $0x0,(%esp)
  401566:	e8 81 11 00 00       	call   4026ec <_exit>
  40156b:	8b 45 f4             	mov    -0xc(%ebp),%eax
  40156e:	89 44 24 08          	mov    %eax,0x8(%esp)
  401572:	c7 44 24 04 40 00 00 	movl   $0x40,0x4(%esp)
  401579:	00 
  40157a:	8d 45 b4             	lea    -0x4c(%ebp),%eax
  40157d:	89 04 24             	mov    %eax,(%esp)
  401580:	e8 57 11 00 00       	call   4026dc <_fgets>
  401585:	8d 45 b4             	lea    -0x4c(%ebp),%eax
  401588:	89 04 24             	mov    %eax,(%esp)
  40158b:	e8 04 11 00 00       	call   402694 <_puts>
  401590:	c7 04 24 01 00 00 00 	movl   $0x1,(%esp)
  401597:	a1 1c 30 40 00       	mov    0x40301c,%eax
  40159c:	ff d0                	call   *%eax
  40159e:	89 04 24             	mov    %eax,(%esp)
  4015a1:	e8 3e 11 00 00       	call   4026e4 <_fflush>
  4015a6:	90                   	nop
  4015a7:	c9                   	leave  
  4015a8:	c3                   	ret    

004015a9 <_vuln>:
  4015a9:	55                   	push   %ebp
  4015aa:	89 e5                	mov    %esp,%ebp
  4015ac:	81 ec 98 00 00 00    	sub    $0x98,%esp
  4015b2:	c7 04 24 35 40 40 00 	movl   $0x404035,(%esp)
  4015b9:	e8 d6 10 00 00       	call   402694 <_puts>
  4015be:	8d 85 78 ff ff ff    	lea    -0x88(%ebp),%eax
  4015c4:	89 04 24             	mov    %eax,(%esp)
  4015c7:	e8 e8 10 00 00       	call   4026b4 <_gets>
  4015cc:	90                   	nop
  4015cd:	c9                   	leave  
  4015ce:	c3                   	ret    

004015cf <_main>:
  4015cf:	55                   	push   %ebp
  4015d0:	89 e5                	mov    %esp,%ebp
  4015d2:	83 e4 f0             	and    $0xfffffff0,%esp
  4015d5:	83 ec 10             	sub    $0x10,%esp
  4015d8:	e8 f3 00 00 00       	call   4016d0 <___main>
  4015dd:	c7 44 24 04 30 15 40 	movl   $0x401530,0x4(%esp)
  4015e4:	00 
  4015e5:	c7 04 24 47 40 40 00 	movl   $0x404047,(%esp)
  4015ec:	e8 ab 10 00 00       	call   40269c <_printf>
  4015f1:	c7 04 24 01 00 00 00 	movl   $0x1,(%esp)
  4015f8:	a1 1c 30 40 00       	mov    0x40301c,%eax
  4015fd:	ff d0                	call   *%eax
  4015ff:	c7 44 24 0c 00 00 00 	movl   $0x0,0xc(%esp)
  401606:	00 
  401607:	c7 44 24 08 04 00 00 	movl   $0x4,0x8(%esp)
  40160e:	00 
  40160f:	c7 44 24 04 00 00 00 	movl   $0x0,0x4(%esp)
  401616:	00 
  401617:	89 04 24             	mov    %eax,(%esp)
  40161a:	e8 6d 10 00 00       	call   40268c <_setvbuf>
  40161f:	e8 85 ff ff ff       	call   4015a9 <_vuln>
  401624:	b8 00 00 00 00       	mov    $0x0,%eax
  401629:	c9                   	leave  
  40162a:	c3                   	ret    
  40162b:	90                   	nop
  40162c:	66 90                	xchg   %ax,%ax
  40162e:	66 90                	xchg   %ax,%ax

00401630 <___do_global_dtors>:
  401630:	a1 04 30 40 00       	mov    0x403004,%eax
  401635:	8b 00                	mov    (%eax),%eax
  401637:	85 c0                	test   %eax,%eax
  401639:	74 25                	je     401660 <___do_global_dtors+0x30>
  40163b:	83 ec 0c             	sub    $0xc,%esp
  40163e:	66 90                	xchg   %ax,%ax
  401640:	ff d0                	call   *%eax
  401642:	a1 04 30 40 00       	mov    0x403004,%eax
  401647:	8d 50 04             	lea    0x4(%eax),%edx
  40164a:	8b 40 04             	mov    0x4(%eax),%eax
  40164d:	89 15 04 30 40 00    	mov    %edx,0x403004
  401653:	85 c0                	test   %eax,%eax
  401655:	75 e9                	jne    401640 <___do_global_dtors+0x10>
  401657:	83 c4 0c             	add    $0xc,%esp
  40165a:	c3                   	ret    
  40165b:	8d 74 26 00          	lea    0x0(%esi,%eiz,1),%esi
  40165f:	90                   	nop
  401660:	c3                   	ret    
  401661:	8d b4 26 00 00 00 00 	lea    0x0(%esi,%eiz,1),%esi
  401668:	8d b4 26 00 00 00 00 	lea    0x0(%esi,%eiz,1),%esi
  40166f:	90                   	nop

00401670 <___do_global_ctors>:
  401670:	53                   	push   %ebx
  401671:	83 ec 18             	sub    $0x18,%esp
  401674:	8b 1d 90 27 40 00    	mov    0x402790,%ebx
  40167a:	83 fb ff             	cmp    $0xffffffff,%ebx
  40167d:	74 29                	je     4016a8 <___do_global_ctors+0x38>
  40167f:	85 db                	test   %ebx,%ebx
  401681:	74 11                	je     401694 <___do_global_ctors+0x24>
  401683:	8d 74 26 00          	lea    0x0(%esi,%eiz,1),%esi
  401687:	90                   	nop
  401688:	ff 14 9d 90 27 40 00 	call   *0x402790(,%ebx,4)
  40168f:	83 eb 01             	sub    $0x1,%ebx
  401692:	75 f4                	jne    401688 <___do_global_ctors+0x18>
  401694:	c7 04 24 30 16 40 00 	movl   $0x401630,(%esp)
  40169b:	e8 40 fe ff ff       	call   4014e0 <_atexit>
  4016a0:	83 c4 18             	add    $0x18,%esp
  4016a3:	5b                   	pop    %ebx
  4016a4:	c3                   	ret    
  4016a5:	8d 76 00             	lea    0x0(%esi),%esi
  4016a8:	31 c0                	xor    %eax,%eax
  4016aa:	8d b6 00 00 00 00    	lea    0x0(%esi),%esi
  4016b0:	89 c3                	mov    %eax,%ebx
  4016b2:	83 c0 01             	add    $0x1,%eax
  4016b5:	8b 14 85 90 27 40 00 	mov    0x402790(,%eax,4),%edx
  4016bc:	85 d2                	test   %edx,%edx
  4016be:	75 f0                	jne    4016b0 <___do_global_ctors+0x40>
  4016c0:	eb bd                	jmp    40167f <___do_global_ctors+0xf>
  4016c2:	8d b4 26 00 00 00 00 	lea    0x0(%esi,%eiz,1),%esi
  4016c9:	8d b4 26 00 00 00 00 	lea    0x0(%esi,%eiz,1),%esi

004016d0 <___main>:
  4016d0:	a1 20 50 40 00       	mov    0x405020,%eax
  4016d5:	85 c0                	test   %eax,%eax
  4016d7:	74 07                	je     4016e0 <___main+0x10>
  4016d9:	c3                   	ret    
  4016da:	8d b6 00 00 00 00    	lea    0x0(%esi),%esi
  4016e0:	c7 05 20 50 40 00 01 	movl   $0x1,0x405020
  4016e7:	00 00 00 
  4016ea:	eb 84                	jmp    401670 <___do_global_ctors>
  4016ec:	90                   	nop
  4016ed:	90                   	nop
  4016ee:	90                   	nop
  4016ef:	90                   	nop

004016f0 <_my_lconv_init>:
  4016f0:	ff 25 64 61 40 00    	jmp    *0x406164
  4016f6:	90                   	nop
  4016f7:	90                   	nop
  4016f8:	90                   	nop
  4016f9:	90                   	nop
  4016fa:	90                   	nop
  4016fb:	90                   	nop
  4016fc:	90                   	nop
  4016fd:	90                   	nop
  4016fe:	90                   	nop
  4016ff:	90                   	nop

00401700 <__setargv>:
  401700:	31 c0                	xor    %eax,%eax
  401702:	c3                   	ret    
  401703:	90                   	nop
  401704:	90                   	nop
  401705:	90                   	nop
  401706:	90                   	nop
  401707:	90                   	nop
  401708:	90                   	nop
  401709:	90                   	nop
  40170a:	90                   	nop
  40170b:	90                   	nop
  40170c:	90                   	nop
  40170d:	90                   	nop
  40170e:	90                   	nop
  40170f:	90                   	nop

00401710 <___security_init_cookie>:
  401710:	55                   	push   %ebp
  401711:	57                   	push   %edi
  401712:	56                   	push   %esi
  401713:	53                   	push   %ebx
  401714:	83 ec 2c             	sub    $0x2c,%esp
  401717:	a1 28 30 40 00       	mov    0x403028,%eax
  40171c:	c7 44 24 10 00 00 00 	movl   $0x0,0x10(%esp)
  401723:	00 
  401724:	c7 44 24 14 00 00 00 	movl   $0x0,0x14(%esp)
  40172b:	00 
  40172c:	3d 4e e6 40 bb       	cmp    $0xbb40e64e,%eax
  401731:	74 15                	je     401748 <___security_init_cookie+0x38>
  401733:	f7 d0                	not    %eax
  401735:	a3 2c 30 40 00       	mov    %eax,0x40302c
  40173a:	83 c4 2c             	add    $0x2c,%esp
  40173d:	5b                   	pop    %ebx
  40173e:	5e                   	pop    %esi
  40173f:	5f                   	pop    %edi
  401740:	5d                   	pop    %ebp
  401741:	c3                   	ret    
  401742:	8d b6 00 00 00 00    	lea    0x0(%esi),%esi
  401748:	8d 44 24 10          	lea    0x10(%esp),%eax
  40174c:	89 04 24             	mov    %eax,(%esp)
  40174f:	ff 15 28 61 40 00    	call   *0x406128
  401755:	83 ec 04             	sub    $0x4,%esp
  401758:	8b 5c 24 10          	mov    0x10(%esp),%ebx
  40175c:	33 5c 24 14          	xor    0x14(%esp),%ebx
  401760:	ff 15 18 61 40 00    	call   *0x406118
  401766:	89 c5                	mov    %eax,%ebp
  401768:	ff 15 1c 61 40 00    	call   *0x40611c
  40176e:	89 c7                	mov    %eax,%edi
  401770:	ff 15 2c 61 40 00    	call   *0x40612c
  401776:	89 c6                	mov    %eax,%esi
  401778:	8d 44 24 18          	lea    0x18(%esp),%eax
  40177c:	89 04 24             	mov    %eax,(%esp)
  40177f:	ff 15 38 61 40 00    	call   *0x406138
  401785:	83 ec 04             	sub    $0x4,%esp
  401788:	8b 44 24 18          	mov    0x18(%esp),%eax
  40178c:	31 d8                	xor    %ebx,%eax
  40178e:	33 44 24 1c          	xor    0x1c(%esp),%eax
  401792:	31 e8                	xor    %ebp,%eax
  401794:	31 f8                	xor    %edi,%eax
  401796:	31 f0                	xor    %esi,%eax
  401798:	3d 4e e6 40 bb       	cmp    $0xbb40e64e,%eax
  40179d:	74 21                	je     4017c0 <___security_init_cookie+0xb0>
  40179f:	89 c2                	mov    %eax,%edx
  4017a1:	f7 d2                	not    %edx
  4017a3:	a3 28 30 40 00       	mov    %eax,0x403028
  4017a8:	89 15 2c 30 40 00    	mov    %edx,0x40302c
  4017ae:	83 c4 2c             	add    $0x2c,%esp
  4017b1:	5b                   	pop    %ebx
  4017b2:	5e                   	pop    %esi
  4017b3:	5f                   	pop    %edi
  4017b4:	5d                   	pop    %ebp
  4017b5:	c3                   	ret    
  4017b6:	8d b4 26 00 00 00 00 	lea    0x0(%esi,%eiz,1),%esi
  4017bd:	8d 76 00             	lea    0x0(%esi),%esi
  4017c0:	ba b0 19 bf 44       	mov    $0x44bf19b0,%edx
  4017c5:	b8 4f e6 40 bb       	mov    $0xbb40e64f,%eax
  4017ca:	eb d7                	jmp    4017a3 <___security_init_cookie+0x93>
  4017cc:	8d 74 26 00          	lea    0x0(%esi,%eiz,1),%esi

004017d0 <___report_gsfailure>:
  4017d0:	55                   	push   %ebp
  4017d1:	89 e5                	mov    %esp,%ebp
  4017d3:	83 ec 28             	sub    $0x28,%esp
  4017d6:	c7 05 20 53 40 00 09 	movl   $0xc0000409,0x405320
  4017dd:	04 00 c0 
  4017e0:	8b 45 04             	mov    0x4(%ebp),%eax
  4017e3:	8d 55 04             	lea    0x4(%ebp),%edx
  4017e6:	c7 05 24 53 40 00 01 	movl   $0x1,0x405324
  4017ed:	00 00 00 
  4017f0:	89 15 04 51 40 00    	mov    %edx,0x405104
  4017f6:	a3 f8 50 40 00       	mov    %eax,0x4050f8
  4017fb:	a3 2c 53 40 00       	mov    %eax,0x40532c
  401800:	8b 45 08             	mov    0x8(%ebp),%eax
  401803:	c7 04 24 00 00 00 00 	movl   $0x0,(%esp)
  40180a:	a3 ec 50 40 00       	mov    %eax,0x4050ec
  40180f:	a1 28 30 40 00       	mov    0x403028,%eax
  401814:	89 45 f0             	mov    %eax,-0x10(%ebp)
  401817:	a1 2c 30 40 00       	mov    0x40302c,%eax
  40181c:	89 45 f4             	mov    %eax,-0xc(%ebp)
  40181f:	ff 15 3c 61 40 00    	call   *0x40613c
  401825:	83 ec 04             	sub    $0x4,%esp
  401828:	c7 04 24 4c 40 40 00 	movl   $0x40404c,(%esp)
  40182f:	ff 15 4c 61 40 00    	call   *0x40614c
  401835:	83 ec 04             	sub    $0x4,%esp
  401838:	ff 15 14 61 40 00    	call   *0x406114
  40183e:	c7 44 24 04 09 04 00 	movl   $0xc0000409,0x4(%esp)
  401845:	c0 
  401846:	89 04 24             	mov    %eax,(%esp)
  401849:	ff 15 44 61 40 00    	call   *0x406144
  40184f:	83 ec 08             	sub    $0x8,%esp
  401852:	e8 a5 0e 00 00       	call   4026fc <_abort>
  401857:	90                   	nop
  401858:	90                   	nop
  401859:	90                   	nop
  40185a:	90                   	nop
  40185b:	90                   	nop
  40185c:	90                   	nop
  40185d:	90                   	nop
  40185e:	90                   	nop
  40185f:	90                   	nop

00401860 <___dyn_tls_dtor@12>:
  401860:	83 ec 1c             	sub    $0x1c,%esp
  401863:	8b 44 24 24          	mov    0x24(%esp),%eax
  401867:	83 f8 03             	cmp    $0x3,%eax
  40186a:	74 14                	je     401880 <___dyn_tls_dtor@12+0x20>
  40186c:	85 c0                	test   %eax,%eax
  40186e:	74 10                	je     401880 <___dyn_tls_dtor@12+0x20>
  401870:	b8 01 00 00 00       	mov    $0x1,%eax
  401875:	83 c4 1c             	add    $0x1c,%esp
  401878:	c2 0c 00             	ret    $0xc
  40187b:	8d 74 26 00          	lea    0x0(%esi,%eiz,1),%esi
  40187f:	90                   	nop
  401880:	89 44 24 04          	mov    %eax,0x4(%esp)
  401884:	8b 54 24 28          	mov    0x28(%esp),%edx
  401888:	8b 44 24 20          	mov    0x20(%esp),%eax
  40188c:	89 54 24 08          	mov    %edx,0x8(%esp)
  401890:	89 04 24             	mov    %eax,(%esp)
  401893:	e8 18 09 00 00       	call   4021b0 <___mingw_TLScallback>
  401898:	b8 01 00 00 00       	mov    $0x1,%eax
  40189d:	83 c4 1c             	add    $0x1c,%esp
  4018a0:	c2 0c 00             	ret    $0xc
  4018a3:	8d b4 26 00 00 00 00 	lea    0x0(%esi,%eiz,1),%esi
  4018aa:	8d b6 00 00 00 00    	lea    0x0(%esi),%esi

004018b0 <___dyn_tls_init@12>:
  4018b0:	56                   	push   %esi
  4018b1:	53                   	push   %ebx
  4018b2:	83 ec 14             	sub    $0x14,%esp
  4018b5:	83 3d 14 30 40 00 02 	cmpl   $0x2,0x403014
  4018bc:	8b 44 24 24          	mov    0x24(%esp),%eax
  4018c0:	74 0a                	je     4018cc <___dyn_tls_init@12+0x1c>
  4018c2:	c7 05 14 30 40 00 02 	movl   $0x2,0x403014
  4018c9:	00 00 00 
  4018cc:	83 f8 02             	cmp    $0x2,%eax
  4018cf:	74 17                	je     4018e8 <___dyn_tls_init@12+0x38>
  4018d1:	83 f8 01             	cmp    $0x1,%eax
  4018d4:	74 4a                	je     401920 <___dyn_tls_init@12+0x70>
  4018d6:	83 c4 14             	add    $0x14,%esp
  4018d9:	b8 01 00 00 00       	mov    $0x1,%eax
  4018de:	5b                   	pop    %ebx
  4018df:	5e                   	pop    %esi
  4018e0:	c2 0c 00             	ret    $0xc
  4018e3:	8d 74 26 00          	lea    0x0(%esi,%eiz,1),%esi
  4018e7:	90                   	nop
  4018e8:	bb 30 70 40 00       	mov    $0x407030,%ebx
  4018ed:	be 30 70 40 00       	mov    $0x407030,%esi
  4018f2:	39 de                	cmp    %ebx,%esi
  4018f4:	74 e0                	je     4018d6 <___dyn_tls_init@12+0x26>
  4018f6:	8d b4 26 00 00 00 00 	lea    0x0(%esi,%eiz,1),%esi
  4018fd:	8d 76 00             	lea    0x0(%esi),%esi
  401900:	8b 03                	mov    (%ebx),%eax
  401902:	85 c0                	test   %eax,%eax
  401904:	74 02                	je     401908 <___dyn_tls_init@12+0x58>
  401906:	ff d0                	call   *%eax
  401908:	83 c3 04             	add    $0x4,%ebx
  40190b:	39 de                	cmp    %ebx,%esi
  40190d:	75 f1                	jne    401900 <___dyn_tls_init@12+0x50>
  40190f:	83 c4 14             	add    $0x14,%esp
  401912:	b8 01 00 00 00       	mov    $0x1,%eax
  401917:	5b                   	pop    %ebx
  401918:	5e                   	pop    %esi
  401919:	c2 0c 00             	ret    $0xc
  40191c:	8d 74 26 00          	lea    0x0(%esi,%eiz,1),%esi
  401920:	8b 44 24 28          	mov    0x28(%esp),%eax
  401924:	c7 44 24 04 01 00 00 	movl   $0x1,0x4(%esp)
  40192b:	00 
  40192c:	89 44 24 08          	mov    %eax,0x8(%esp)
  401930:	8b 44 24 20          	mov    0x20(%esp),%eax
  401934:	89 04 24             	mov    %eax,(%esp)
  401937:	e8 74 08 00 00       	call   4021b0 <___mingw_TLScallback>
  40193c:	83 c4 14             	add    $0x14,%esp
  40193f:	b8 01 00 00 00       	mov    $0x1,%eax
  401944:	5b                   	pop    %ebx
  401945:	5e                   	pop    %esi
  401946:	c2 0c 00             	ret    $0xc
  401949:	8d b4 26 00 00 00 00 	lea    0x0(%esi,%eiz,1),%esi

00401950 <___tlregdtor>:
  401950:	31 c0                	xor    %eax,%eax
  401952:	c3                   	ret    
  401953:	90                   	nop
  401954:	90                   	nop
  401955:	90                   	nop
  401956:	90                   	nop
  401957:	90                   	nop
  401958:	90                   	nop
  401959:	90                   	nop
  40195a:	90                   	nop
  40195b:	90                   	nop
  40195c:	90                   	nop
  40195d:	90                   	nop
  40195e:	90                   	nop
  40195f:	90                   	nop

00401960 <__matherr>:
  401960:	56                   	push   %esi
  401961:	53                   	push   %ebx
  401962:	bb 70 40 40 00       	mov    $0x404070,%ebx
  401967:	83 ec 54             	sub    $0x54,%esp
  40196a:	8b 44 24 60          	mov    0x60(%esp),%eax
  40196e:	8b 08                	mov    (%eax),%ecx
  401970:	8d 51 ff             	lea    -0x1(%ecx),%edx
  401973:	83 fa 05             	cmp    $0x5,%edx
  401976:	77 07                	ja     40197f <__matherr+0x1f>
  401978:	8b 1c 95 8c 41 40 00 	mov    0x40418c(,%edx,4),%ebx
  40197f:	dd 40 18             	fldl   0x18(%eax)
  401982:	8b 70 04             	mov    0x4(%eax),%esi
  401985:	dd 5c 24 48          	fstpl  0x48(%esp)
  401989:	dd 40 10             	fldl   0x10(%eax)
  40198c:	dd 5c 24 40          	fstpl  0x40(%esp)
  401990:	dd 40 08             	fldl   0x8(%eax)
  401993:	c7 04 24 02 00 00 00 	movl   $0x2,(%esp)
  40199a:	dd 5c 24 38          	fstpl  0x38(%esp)
  40199e:	e8 ad 0d 00 00       	call   402750 <___acrt_iob_func>
  4019a3:	dd 44 24 48          	fldl   0x48(%esp)
  4019a7:	89 74 24 0c          	mov    %esi,0xc(%esp)
  4019ab:	89 5c 24 08          	mov    %ebx,0x8(%esp)
  4019af:	c7 44 24 04 80 40 40 	movl   $0x404080,0x4(%esp)
  4019b6:	00 
  4019b7:	dd 5c 24 20          	fstpl  0x20(%esp)
  4019bb:	dd 44 24 40          	fldl   0x40(%esp)
  4019bf:	89 04 24             	mov    %eax,(%esp)
  4019c2:	dd 5c 24 18          	fstpl  0x18(%esp)
  4019c6:	dd 44 24 38          	fldl   0x38(%esp)
  4019ca:	dd 5c 24 10          	fstpl  0x10(%esp)
  4019ce:	e8 f9 0c 00 00       	call   4026cc <_fprintf>
  4019d3:	83 c4 54             	add    $0x54,%esp
  4019d6:	31 c0                	xor    %eax,%eax
  4019d8:	5b                   	pop    %ebx
  4019d9:	5e                   	pop    %esi
  4019da:	c3                   	ret    
  4019db:	90                   	nop
  4019dc:	90                   	nop
  4019dd:	90                   	nop
  4019de:	90                   	nop
  4019df:	90                   	nop

004019e0 <__fpreset>:
  4019e0:	db e3                	fninit 
  4019e2:	c3                   	ret    
  4019e3:	90                   	nop
  4019e4:	90                   	nop
  4019e5:	90                   	nop
  4019e6:	90                   	nop
  4019e7:	90                   	nop
  4019e8:	90                   	nop
  4019e9:	90                   	nop
  4019ea:	90                   	nop
  4019eb:	90                   	nop
  4019ec:	90                   	nop
  4019ed:	90                   	nop
  4019ee:	90                   	nop
  4019ef:	90                   	nop

004019f0 <___report_error>:
  4019f0:	53                   	push   %ebx
  4019f1:	83 ec 18             	sub    $0x18,%esp
  4019f4:	c7 04 24 02 00 00 00 	movl   $0x2,(%esp)
  4019fb:	8d 5c 24 24          	lea    0x24(%esp),%ebx
  4019ff:	e8 4c 0d 00 00       	call   402750 <___acrt_iob_func>
  401a04:	c7 44 24 08 1b 00 00 	movl   $0x1b,0x8(%esp)
  401a0b:	00 
  401a0c:	89 44 24 0c          	mov    %eax,0xc(%esp)
  401a10:	c7 44 24 04 01 00 00 	movl   $0x1,0x4(%esp)
  401a17:	00 
  401a18:	c7 04 24 a4 41 40 00 	movl   $0x4041a4,(%esp)
  401a1f:	e8 98 0c 00 00       	call   4026bc <_fwrite>
  401a24:	c7 04 24 02 00 00 00 	movl   $0x2,(%esp)
  401a2b:	e8 20 0d 00 00       	call   402750 <___acrt_iob_func>
  401a30:	8b 54 24 20          	mov    0x20(%esp),%edx
  401a34:	89 5c 24 08          	mov    %ebx,0x8(%esp)
  401a38:	89 04 24             	mov    %eax,(%esp)
  401a3b:	89 54 24 04          	mov    %edx,0x4(%esp)
  401a3f:	e8 28 0c 00 00       	call   40266c <_vfprintf>
  401a44:	e8 b3 0c 00 00       	call   4026fc <_abort>
  401a49:	8d b4 26 00 00 00 00 	lea    0x0(%esi,%eiz,1),%esi

00401a50 <_mark_section_writable>:
  401a50:	57                   	push   %edi
  401a51:	56                   	push   %esi
  401a52:	53                   	push   %ebx
  401a53:	89 c3                	mov    %eax,%ebx
  401a55:	83 ec 30             	sub    $0x30,%esp
  401a58:	8b 35 9c 53 40 00    	mov    0x40539c,%esi
  401a5e:	85 f6                	test   %esi,%esi
  401a60:	0f 8e ea 00 00 00    	jle    401b50 <_mark_section_writable+0x100>
  401a66:	a1 a0 53 40 00       	mov    0x4053a0,%eax
  401a6b:	31 c9                	xor    %ecx,%ecx
  401a6d:	83 c0 0c             	add    $0xc,%eax
  401a70:	8b 10                	mov    (%eax),%edx
  401a72:	39 da                	cmp    %ebx,%edx
  401a74:	77 0a                	ja     401a80 <_mark_section_writable+0x30>
  401a76:	8b 78 04             	mov    0x4(%eax),%edi
  401a79:	03 57 08             	add    0x8(%edi),%edx
  401a7c:	39 d3                	cmp    %edx,%ebx
  401a7e:	72 7f                	jb     401aff <_mark_section_writable+0xaf>
  401a80:	83 c1 01             	add    $0x1,%ecx
  401a83:	83 c0 14             	add    $0x14,%eax
  401a86:	39 f1                	cmp    %esi,%ecx
  401a88:	75 e6                	jne    401a70 <_mark_section_writable+0x20>
  401a8a:	89 1c 24             	mov    %ebx,(%esp)
  401a8d:	e8 2e 09 00 00       	call   4023c0 <___mingw_GetSectionForAddress>
  401a92:	89 c7                	mov    %eax,%edi
  401a94:	85 c0                	test   %eax,%eax
  401a96:	0f 84 db 00 00 00    	je     401b77 <_mark_section_writable+0x127>
  401a9c:	a1 a0 53 40 00       	mov    0x4053a0,%eax
  401aa1:	8d 1c b6             	lea    (%esi,%esi,4),%ebx
  401aa4:	c1 e3 02             	shl    $0x2,%ebx
  401aa7:	01 d8                	add    %ebx,%eax
  401aa9:	89 78 10             	mov    %edi,0x10(%eax)
  401aac:	c7 00 00 00 00 00    	movl   $0x0,(%eax)
  401ab2:	e8 19 0a 00 00       	call   4024d0 <__GetPEImageBase>
  401ab7:	8b 15 a0 53 40 00    	mov    0x4053a0,%edx
  401abd:	03 47 0c             	add    0xc(%edi),%eax
  401ac0:	89 44 1a 0c          	mov    %eax,0xc(%edx,%ebx,1)
  401ac4:	8d 54 24 14          	lea    0x14(%esp),%edx
  401ac8:	c7 44 24 08 1c 00 00 	movl   $0x1c,0x8(%esp)
  401acf:	00 
  401ad0:	89 54 24 04          	mov    %edx,0x4(%esp)
  401ad4:	89 04 24             	mov    %eax,(%esp)
  401ad7:	ff 15 54 61 40 00    	call   *0x406154
  401add:	83 ec 0c             	sub    $0xc,%esp
  401ae0:	85 c0                	test   %eax,%eax
  401ae2:	74 73                	je     401b57 <_mark_section_writable+0x107>
  401ae4:	8b 44 24 28          	mov    0x28(%esp),%eax
  401ae8:	8d 50 c0             	lea    -0x40(%eax),%edx
  401aeb:	83 e2 bf             	and    $0xffffffbf,%edx
  401aee:	74 08                	je     401af8 <_mark_section_writable+0xa8>
  401af0:	83 e8 04             	sub    $0x4,%eax
  401af3:	83 e0 fb             	and    $0xfffffffb,%eax
  401af6:	75 0e                	jne    401b06 <_mark_section_writable+0xb6>
  401af8:	83 05 9c 53 40 00 01 	addl   $0x1,0x40539c
  401aff:	83 c4 30             	add    $0x30,%esp
  401b02:	5b                   	pop    %ebx
  401b03:	5e                   	pop    %esi
  401b04:	5f                   	pop    %edi
  401b05:	c3                   	ret    
  401b06:	8b 44 24 14          	mov    0x14(%esp),%eax
  401b0a:	8b 54 24 20          	mov    0x20(%esp),%edx
  401b0e:	03 1d a0 53 40 00    	add    0x4053a0,%ebx
  401b14:	89 43 04             	mov    %eax,0x4(%ebx)
  401b17:	89 53 08             	mov    %edx,0x8(%ebx)
  401b1a:	89 5c 24 0c          	mov    %ebx,0xc(%esp)
  401b1e:	c7 44 24 08 40 00 00 	movl   $0x40,0x8(%esp)
  401b25:	00 
  401b26:	89 54 24 04          	mov    %edx,0x4(%esp)
  401b2a:	89 04 24             	mov    %eax,(%esp)
  401b2d:	ff 15 50 61 40 00    	call   *0x406150
  401b33:	83 ec 10             	sub    $0x10,%esp
  401b36:	85 c0                	test   %eax,%eax
  401b38:	75 be                	jne    401af8 <_mark_section_writable+0xa8>
  401b3a:	ff 15 20 61 40 00    	call   *0x406120
  401b40:	c7 04 24 14 42 40 00 	movl   $0x404214,(%esp)
  401b47:	89 44 24 04          	mov    %eax,0x4(%esp)
  401b4b:	e8 a0 fe ff ff       	call   4019f0 <___report_error>
  401b50:	31 f6                	xor    %esi,%esi
  401b52:	e9 33 ff ff ff       	jmp    401a8a <_mark_section_writable+0x3a>
  401b57:	a1 a0 53 40 00       	mov    0x4053a0,%eax
  401b5c:	8b 44 18 0c          	mov    0xc(%eax,%ebx,1),%eax
  401b60:	89 44 24 08          	mov    %eax,0x8(%esp)
  401b64:	8b 47 08             	mov    0x8(%edi),%eax
  401b67:	c7 04 24 e0 41 40 00 	movl   $0x4041e0,(%esp)
  401b6e:	89 44 24 04          	mov    %eax,0x4(%esp)
  401b72:	e8 79 fe ff ff       	call   4019f0 <___report_error>
  401b77:	89 5c 24 04          	mov    %ebx,0x4(%esp)
  401b7b:	c7 04 24 c0 41 40 00 	movl   $0x4041c0,(%esp)
  401b82:	e8 69 fe ff ff       	call   4019f0 <___report_error>
  401b87:	8d b4 26 00 00 00 00 	lea    0x0(%esi,%eiz,1),%esi
  401b8e:	66 90                	xchg   %ax,%ax

00401b90 <__pei386_runtime_relocator>:
  401b90:	55                   	push   %ebp
  401b91:	89 e5                	mov    %esp,%ebp
  401b93:	57                   	push   %edi
  401b94:	56                   	push   %esi
  401b95:	53                   	push   %ebx
  401b96:	83 ec 3c             	sub    $0x3c,%esp
  401b99:	a1 98 53 40 00       	mov    0x405398,%eax
  401b9e:	89 45 cc             	mov    %eax,-0x34(%ebp)
  401ba1:	85 c0                	test   %eax,%eax
  401ba3:	74 0b                	je     401bb0 <__pei386_runtime_relocator+0x20>
  401ba5:	8d 65 f4             	lea    -0xc(%ebp),%esp
  401ba8:	5b                   	pop    %ebx
  401ba9:	5e                   	pop    %esi
  401baa:	5f                   	pop    %edi
  401bab:	5d                   	pop    %ebp
  401bac:	c3                   	ret    
  401bad:	8d 76 00             	lea    0x0(%esi),%esi
  401bb0:	c7 05 98 53 40 00 01 	movl   $0x1,0x405398
  401bb7:	00 00 00 
  401bba:	e8 81 08 00 00       	call   402440 <___mingw_GetSectionCount>
  401bbf:	8d 04 80             	lea    (%eax,%eax,4),%eax
  401bc2:	8d 04 85 1b 00 00 00 	lea    0x1b(,%eax,4),%eax
  401bc9:	c1 e8 04             	shr    $0x4,%eax
  401bcc:	c1 e0 04             	shl    $0x4,%eax
  401bcf:	e8 6c 0a 00 00       	call   402640 <___chkstk_ms>
  401bd4:	c7 05 9c 53 40 00 00 	movl   $0x0,0x40539c
  401bdb:	00 00 00 
  401bde:	29 c4                	sub    %eax,%esp
  401be0:	8d 44 24 1f          	lea    0x1f(%esp),%eax
  401be4:	83 e0 f0             	and    $0xfffffff0,%eax
  401be7:	a3 a0 53 40 00       	mov    %eax,0x4053a0
  401bec:	b8 1c 46 40 00       	mov    $0x40461c,%eax
  401bf1:	2d 1c 46 40 00       	sub    $0x40461c,%eax
  401bf6:	83 f8 07             	cmp    $0x7,%eax
  401bf9:	7e aa                	jle    401ba5 <__pei386_runtime_relocator+0x15>
  401bfb:	8b 15 1c 46 40 00    	mov    0x40461c,%edx
  401c01:	83 f8 0b             	cmp    $0xb,%eax
  401c04:	0f 8f 96 00 00 00    	jg     401ca0 <__pei386_runtime_relocator+0x110>
  401c0a:	bb 1c 46 40 00       	mov    $0x40461c,%ebx
  401c0f:	85 d2                	test   %edx,%edx
  401c11:	0f 85 8e 01 00 00    	jne    401da5 <__pei386_runtime_relocator+0x215>
  401c17:	8b 43 04             	mov    0x4(%ebx),%eax
  401c1a:	85 c0                	test   %eax,%eax
  401c1c:	0f 85 83 01 00 00    	jne    401da5 <__pei386_runtime_relocator+0x215>
  401c22:	8b 43 08             	mov    0x8(%ebx),%eax
  401c25:	83 f8 01             	cmp    $0x1,%eax
  401c28:	0f 85 c4 01 00 00    	jne    401df2 <__pei386_runtime_relocator+0x262>
  401c2e:	8d 7b 0c             	lea    0xc(%ebx),%edi
  401c31:	81 ff 1c 46 40 00    	cmp    $0x40461c,%edi
  401c37:	72 26                	jb     401c5f <__pei386_runtime_relocator+0xcf>
  401c39:	e9 67 ff ff ff       	jmp    401ba5 <__pei386_runtime_relocator+0x15>
  401c3e:	66 90                	xchg   %ax,%ax
  401c40:	2b 45 d4             	sub    -0x2c(%ebp),%eax
  401c43:	03 03                	add    (%ebx),%eax
  401c45:	89 c6                	mov    %eax,%esi
  401c47:	89 d8                	mov    %ebx,%eax
  401c49:	e8 02 fe ff ff       	call   401a50 <_mark_section_writable>
  401c4e:	89 33                	mov    %esi,(%ebx)
  401c50:	83 c7 0c             	add    $0xc,%edi
  401c53:	81 ff 1c 46 40 00    	cmp    $0x40461c,%edi
  401c59:	0f 83 b1 00 00 00    	jae    401d10 <__pei386_runtime_relocator+0x180>
  401c5f:	8b 07                	mov    (%edi),%eax
  401c61:	8b 4f 04             	mov    0x4(%edi),%ecx
  401c64:	0f b6 57 08          	movzbl 0x8(%edi),%edx
  401c68:	8d b0 00 00 40 00    	lea    0x400000(%eax),%esi
  401c6e:	8d 99 00 00 40 00    	lea    0x400000(%ecx),%ebx
  401c74:	8b 80 00 00 40 00    	mov    0x400000(%eax),%eax
  401c7a:	89 75 d4             	mov    %esi,-0x2c(%ebp)
  401c7d:	83 fa 10             	cmp    $0x10,%edx
  401c80:	74 4e                	je     401cd0 <__pei386_runtime_relocator+0x140>
  401c82:	83 fa 20             	cmp    $0x20,%edx
  401c85:	74 b9                	je     401c40 <__pei386_runtime_relocator+0xb0>
  401c87:	83 fa 08             	cmp    $0x8,%edx
  401c8a:	0f 84 e0 00 00 00    	je     401d70 <__pei386_runtime_relocator+0x1e0>
  401c90:	89 54 24 04          	mov    %edx,0x4(%esp)
  401c94:	c7 04 24 70 42 40 00 	movl   $0x404270,(%esp)
  401c9b:	e8 50 fd ff ff       	call   4019f0 <___report_error>
  401ca0:	85 d2                	test   %edx,%edx
  401ca2:	0f 85 f8 00 00 00    	jne    401da0 <__pei386_runtime_relocator+0x210>
  401ca8:	a1 20 46 40 00       	mov    0x404620,%eax
  401cad:	89 c7                	mov    %eax,%edi
  401caf:	0b 3d 24 46 40 00    	or     0x404624,%edi
  401cb5:	0f 85 2d 01 00 00    	jne    401de8 <__pei386_runtime_relocator+0x258>
  401cbb:	8b 15 28 46 40 00    	mov    0x404628,%edx
  401cc1:	bb 28 46 40 00       	mov    $0x404628,%ebx
  401cc6:	e9 44 ff ff ff       	jmp    401c0f <__pei386_runtime_relocator+0x7f>
  401ccb:	8d 74 26 00          	lea    0x0(%esi,%eiz,1),%esi
  401ccf:	90                   	nop
  401cd0:	0f b7 b1 00 00 40 00 	movzwl 0x400000(%ecx),%esi
  401cd7:	89 4d d0             	mov    %ecx,-0x30(%ebp)
  401cda:	89 f1                	mov    %esi,%ecx
  401cdc:	81 c9 00 00 ff ff    	or     $0xffff0000,%ecx
  401ce2:	66 85 f6             	test   %si,%si
  401ce5:	0f 48 f1             	cmovs  %ecx,%esi
  401ce8:	2b 75 d4             	sub    -0x2c(%ebp),%esi
  401ceb:	83 c7 0c             	add    $0xc,%edi
  401cee:	01 c6                	add    %eax,%esi
  401cf0:	89 d8                	mov    %ebx,%eax
  401cf2:	e8 59 fd ff ff       	call   401a50 <_mark_section_writable>
  401cf7:	8b 4d d0             	mov    -0x30(%ebp),%ecx
  401cfa:	66 89 b1 00 00 40 00 	mov    %si,0x400000(%ecx)
  401d01:	81 ff 1c 46 40 00    	cmp    $0x40461c,%edi
  401d07:	0f 82 52 ff ff ff    	jb     401c5f <__pei386_runtime_relocator+0xcf>
  401d0d:	8d 76 00             	lea    0x0(%esi),%esi
  401d10:	a1 9c 53 40 00       	mov    0x40539c,%eax
  401d15:	85 c0                	test   %eax,%eax
  401d17:	0f 8e 88 fe ff ff    	jle    401ba5 <__pei386_runtime_relocator+0x15>
  401d1d:	8b 1d 50 61 40 00    	mov    0x406150,%ebx
  401d23:	8b 7d cc             	mov    -0x34(%ebp),%edi
  401d26:	8d 75 e4             	lea    -0x1c(%ebp),%esi
  401d29:	8d b4 26 00 00 00 00 	lea    0x0(%esi,%eiz,1),%esi
  401d30:	8b 15 a0 53 40 00    	mov    0x4053a0,%edx
  401d36:	8d 04 bf             	lea    (%edi,%edi,4),%eax
  401d39:	8d 04 82             	lea    (%edx,%eax,4),%eax
  401d3c:	8b 10                	mov    (%eax),%edx
  401d3e:	85 d2                	test   %edx,%edx
  401d40:	74 1a                	je     401d5c <__pei386_runtime_relocator+0x1cc>
  401d42:	89 74 24 0c          	mov    %esi,0xc(%esp)
  401d46:	89 54 24 08          	mov    %edx,0x8(%esp)
  401d4a:	8b 50 08             	mov    0x8(%eax),%edx
  401d4d:	89 54 24 04          	mov    %edx,0x4(%esp)
  401d51:	8b 40 04             	mov    0x4(%eax),%eax
  401d54:	89 04 24             	mov    %eax,(%esp)
  401d57:	ff d3                	call   *%ebx
  401d59:	83 ec 10             	sub    $0x10,%esp
  401d5c:	83 c7 01             	add    $0x1,%edi
  401d5f:	3b 3d 9c 53 40 00    	cmp    0x40539c,%edi
  401d65:	7c c9                	jl     401d30 <__pei386_runtime_relocator+0x1a0>
  401d67:	8d 65 f4             	lea    -0xc(%ebp),%esp
  401d6a:	5b                   	pop    %ebx
  401d6b:	5e                   	pop    %esi
  401d6c:	5f                   	pop    %edi
  401d6d:	5d                   	pop    %ebp
  401d6e:	c3                   	ret    
  401d6f:	90                   	nop
  401d70:	0f b6 13             	movzbl (%ebx),%edx
  401d73:	89 d6                	mov    %edx,%esi
  401d75:	81 ce 00 ff ff ff    	or     $0xffffff00,%esi
  401d7b:	84 d2                	test   %dl,%dl
  401d7d:	0f 48 d6             	cmovs  %esi,%edx
  401d80:	2b 55 d4             	sub    -0x2c(%ebp),%edx
  401d83:	8d 34 02             	lea    (%edx,%eax,1),%esi
  401d86:	89 d8                	mov    %ebx,%eax
  401d88:	e8 c3 fc ff ff       	call   401a50 <_mark_section_writable>
  401d8d:	89 f0                	mov    %esi,%eax
  401d8f:	88 03                	mov    %al,(%ebx)
  401d91:	e9 ba fe ff ff       	jmp    401c50 <__pei386_runtime_relocator+0xc0>
  401d96:	8d b4 26 00 00 00 00 	lea    0x0(%esi,%eiz,1),%esi
  401d9d:	8d 76 00             	lea    0x0(%esi),%esi
  401da0:	bb 1c 46 40 00       	mov    $0x40461c,%ebx
  401da5:	81 fb 1c 46 40 00    	cmp    $0x40461c,%ebx
  401dab:	0f 83 f4 fd ff ff    	jae    401ba5 <__pei386_runtime_relocator+0x15>
  401db1:	8d b4 26 00 00 00 00 	lea    0x0(%esi,%eiz,1),%esi
  401db8:	8b 73 04             	mov    0x4(%ebx),%esi
  401dbb:	8b 3b                	mov    (%ebx),%edi
  401dbd:	83 c3 08             	add    $0x8,%ebx
  401dc0:	03 be 00 00 40 00    	add    0x400000(%esi),%edi
  401dc6:	8d 86 00 00 40 00    	lea    0x400000(%esi),%eax
  401dcc:	e8 7f fc ff ff       	call   401a50 <_mark_section_writable>
  401dd1:	89 be 00 00 40 00    	mov    %edi,0x400000(%esi)
  401dd7:	81 fb 1c 46 40 00    	cmp    $0x40461c,%ebx
  401ddd:	72 d9                	jb     401db8 <__pei386_runtime_relocator+0x228>
  401ddf:	e9 2c ff ff ff       	jmp    401d10 <__pei386_runtime_relocator+0x180>
  401de4:	8d 74 26 00          	lea    0x0(%esi,%eiz,1),%esi
  401de8:	bb 1c 46 40 00       	mov    $0x40461c,%ebx
  401ded:	e9 28 fe ff ff       	jmp    401c1a <__pei386_runtime_relocator+0x8a>
  401df2:	89 44 24 04          	mov    %eax,0x4(%esp)
  401df6:	c7 04 24 3c 42 40 00 	movl   $0x40423c,(%esp)
  401dfd:	e8 ee fb ff ff       	call   4019f0 <___report_error>
  401e02:	90                   	nop
  401e03:	90                   	nop
  401e04:	90                   	nop
  401e05:	90                   	nop
  401e06:	90                   	nop
  401e07:	90                   	nop
  401e08:	90                   	nop
  401e09:	90                   	nop
  401e0a:	90                   	nop
  401e0b:	90                   	nop
  401e0c:	90                   	nop
  401e0d:	90                   	nop
  401e0e:	90                   	nop
  401e0f:	90                   	nop

00401e10 <___mingw_raise_matherr>:
  401e10:	83 ec 3c             	sub    $0x3c,%esp
  401e13:	a1 a4 53 40 00       	mov    0x4053a4,%eax
  401e18:	dd 44 24 48          	fldl   0x48(%esp)
  401e1c:	dd 44 24 50          	fldl   0x50(%esp)
  401e20:	dd 44 24 58          	fldl   0x58(%esp)
  401e24:	85 c0                	test   %eax,%eax
  401e26:	74 30                	je     401e58 <___mingw_raise_matherr+0x48>
  401e28:	d9 ca                	fxch   %st(2)
  401e2a:	8b 54 24 40          	mov    0x40(%esp),%edx
  401e2e:	dd 5c 24 18          	fstpl  0x18(%esp)
  401e32:	dd 5c 24 20          	fstpl  0x20(%esp)
  401e36:	89 54 24 10          	mov    %edx,0x10(%esp)
  401e3a:	8b 54 24 44          	mov    0x44(%esp),%edx
  401e3e:	dd 5c 24 28          	fstpl  0x28(%esp)
  401e42:	89 54 24 14          	mov    %edx,0x14(%esp)
  401e46:	8d 54 24 10          	lea    0x10(%esp),%edx
  401e4a:	89 14 24             	mov    %edx,(%esp)
  401e4d:	ff d0                	call   *%eax
  401e4f:	eb 0d                	jmp    401e5e <___mingw_raise_matherr+0x4e>
  401e51:	8d b4 26 00 00 00 00 	lea    0x0(%esi,%eiz,1),%esi
  401e58:	dd d8                	fstp   %st(0)
  401e5a:	dd d8                	fstp   %st(0)
  401e5c:	dd d8                	fstp   %st(0)
  401e5e:	83 c4 3c             	add    $0x3c,%esp
  401e61:	c3                   	ret    
  401e62:	8d b4 26 00 00 00 00 	lea    0x0(%esi,%eiz,1),%esi
  401e69:	8d b4 26 00 00 00 00 	lea    0x0(%esi,%eiz,1),%esi

00401e70 <___mingw_setusermatherr>:
  401e70:	8b 44 24 04          	mov    0x4(%esp),%eax
  401e74:	a3 a4 53 40 00       	mov    %eax,0x4053a4
  401e79:	e9 a6 08 00 00       	jmp    402724 <___setusermatherr>
  401e7e:	90                   	nop
  401e7f:	90                   	nop

00401e80 <__gnu_exception_handler@4>:
  401e80:	53                   	push   %ebx
  401e81:	83 ec 18             	sub    $0x18,%esp
  401e84:	8b 5c 24 20          	mov    0x20(%esp),%ebx
  401e88:	8b 03                	mov    (%ebx),%eax
  401e8a:	8b 00                	mov    (%eax),%eax
  401e8c:	3d 93 00 00 c0       	cmp    $0xc0000093,%eax
  401e91:	74 1d                	je     401eb0 <__gnu_exception_handler@4+0x30>
  401e93:	77 5b                	ja     401ef0 <__gnu_exception_handler@4+0x70>
  401e95:	3d 1d 00 00 c0       	cmp    $0xc000001d,%eax
  401e9a:	0f 84 db 00 00 00    	je     401f7b <__gnu_exception_handler@4+0xfb>
  401ea0:	0f 86 8a 00 00 00    	jbe    401f30 <__gnu_exception_handler@4+0xb0>
  401ea6:	05 73 ff ff 3f       	add    $0x3fffff73,%eax
  401eab:	83 f8 04             	cmp    $0x4,%eax
  401eae:	77 25                	ja     401ed5 <__gnu_exception_handler@4+0x55>
  401eb0:	c7 44 24 04 00 00 00 	movl   $0x0,0x4(%esp)
  401eb7:	00 
  401eb8:	c7 04 24 08 00 00 00 	movl   $0x8,(%esp)
  401ebf:	e8 c0 07 00 00       	call   402684 <_signal>
  401ec4:	83 f8 01             	cmp    $0x1,%eax
  401ec7:	0f 84 f3 00 00 00    	je     401fc0 <__gnu_exception_handler@4+0x140>
  401ecd:	85 c0                	test   %eax,%eax
  401ecf:	0f 85 0b 01 00 00    	jne    401fe0 <__gnu_exception_handler@4+0x160>
  401ed5:	a1 ac 53 40 00       	mov    0x4053ac,%eax
  401eda:	85 c0                	test   %eax,%eax
  401edc:	0f 84 ce 00 00 00    	je     401fb0 <__gnu_exception_handler@4+0x130>
  401ee2:	89 5c 24 20          	mov    %ebx,0x20(%esp)
  401ee6:	83 c4 18             	add    $0x18,%esp
  401ee9:	5b                   	pop    %ebx
  401eea:	ff e0                	jmp    *%eax
  401eec:	8d 74 26 00          	lea    0x0(%esi,%eiz,1),%esi
  401ef0:	3d 94 00 00 c0       	cmp    $0xc0000094,%eax
  401ef5:	75 79                	jne    401f70 <__gnu_exception_handler@4+0xf0>
  401ef7:	c7 44 24 04 00 00 00 	movl   $0x0,0x4(%esp)
  401efe:	00 
  401eff:	c7 04 24 08 00 00 00 	movl   $0x8,(%esp)
  401f06:	e8 79 07 00 00       	call   402684 <_signal>
  401f0b:	83 f8 01             	cmp    $0x1,%eax
  401f0e:	75 bd                	jne    401ecd <__gnu_exception_handler@4+0x4d>
  401f10:	c7 44 24 04 01 00 00 	movl   $0x1,0x4(%esp)
  401f17:	00 
  401f18:	c7 04 24 08 00 00 00 	movl   $0x8,(%esp)
  401f1f:	e8 60 07 00 00       	call   402684 <_signal>
  401f24:	b8 ff ff ff ff       	mov    $0xffffffff,%eax
  401f29:	e9 84 00 00 00       	jmp    401fb2 <__gnu_exception_handler@4+0x132>
  401f2e:	66 90                	xchg   %ax,%ax
  401f30:	3d 05 00 00 c0       	cmp    $0xc0000005,%eax
  401f35:	75 9e                	jne    401ed5 <__gnu_exception_handler@4+0x55>
  401f37:	c7 44 24 04 00 00 00 	movl   $0x0,0x4(%esp)
  401f3e:	00 
  401f3f:	c7 04 24 0b 00 00 00 	movl   $0xb,(%esp)
  401f46:	e8 39 07 00 00       	call   402684 <_signal>
  401f4b:	83 f8 01             	cmp    $0x1,%eax
  401f4e:	0f 84 9c 00 00 00    	je     401ff0 <__gnu_exception_handler@4+0x170>
  401f54:	85 c0                	test   %eax,%eax
  401f56:	0f 84 79 ff ff ff    	je     401ed5 <__gnu_exception_handler@4+0x55>
  401f5c:	c7 04 24 0b 00 00 00 	movl   $0xb,(%esp)
  401f63:	ff d0                	call   *%eax
  401f65:	b8 ff ff ff ff       	mov    $0xffffffff,%eax
  401f6a:	eb 46                	jmp    401fb2 <__gnu_exception_handler@4+0x132>
  401f6c:	8d 74 26 00          	lea    0x0(%esi,%eiz,1),%esi
  401f70:	3d 96 00 00 c0       	cmp    $0xc0000096,%eax
  401f75:	0f 85 5a ff ff ff    	jne    401ed5 <__gnu_exception_handler@4+0x55>
  401f7b:	c7 44 24 04 00 00 00 	movl   $0x0,0x4(%esp)
  401f82:	00 
  401f83:	c7 04 24 04 00 00 00 	movl   $0x4,(%esp)
  401f8a:	e8 f5 06 00 00       	call   402684 <_signal>
  401f8f:	83 f8 01             	cmp    $0x1,%eax
  401f92:	74 75                	je     402009 <__gnu_exception_handler@4+0x189>
  401f94:	85 c0                	test   %eax,%eax
  401f96:	0f 84 39 ff ff ff    	je     401ed5 <__gnu_exception_handler@4+0x55>
  401f9c:	c7 04 24 04 00 00 00 	movl   $0x4,(%esp)
  401fa3:	ff d0                	call   *%eax
  401fa5:	b8 ff ff ff ff       	mov    $0xffffffff,%eax
  401faa:	eb 06                	jmp    401fb2 <__gnu_exception_handler@4+0x132>
  401fac:	8d 74 26 00          	lea    0x0(%esi,%eiz,1),%esi
  401fb0:	31 c0                	xor    %eax,%eax
  401fb2:	83 c4 18             	add    $0x18,%esp
  401fb5:	5b                   	pop    %ebx
  401fb6:	c2 04 00             	ret    $0x4
  401fb9:	8d b4 26 00 00 00 00 	lea    0x0(%esi,%eiz,1),%esi
  401fc0:	c7 44 24 04 01 00 00 	movl   $0x1,0x4(%esp)
  401fc7:	00 
  401fc8:	c7 04 24 08 00 00 00 	movl   $0x8,(%esp)
  401fcf:	e8 b0 06 00 00       	call   402684 <_signal>
  401fd4:	e8 07 fa ff ff       	call   4019e0 <__fpreset>
  401fd9:	b8 ff ff ff ff       	mov    $0xffffffff,%eax
  401fde:	eb d2                	jmp    401fb2 <__gnu_exception_handler@4+0x132>
  401fe0:	c7 04 24 08 00 00 00 	movl   $0x8,(%esp)
  401fe7:	ff d0                	call   *%eax
  401fe9:	b8 ff ff ff ff       	mov    $0xffffffff,%eax
  401fee:	eb c2                	jmp    401fb2 <__gnu_exception_handler@4+0x132>
  401ff0:	c7 44 24 04 01 00 00 	movl   $0x1,0x4(%esp)
  401ff7:	00 
  401ff8:	c7 04 24 0b 00 00 00 	movl   $0xb,(%esp)
  401fff:	e8 80 06 00 00       	call   402684 <_signal>
  402004:	83 c8 ff             	or     $0xffffffff,%eax
  402007:	eb a9                	jmp    401fb2 <__gnu_exception_handler@4+0x132>
  402009:	c7 44 24 04 01 00 00 	movl   $0x1,0x4(%esp)
  402010:	00 
  402011:	c7 04 24 04 00 00 00 	movl   $0x4,(%esp)
  402018:	e8 67 06 00 00       	call   402684 <_signal>
  40201d:	83 c8 ff             	or     $0xffffffff,%eax
  402020:	eb 90                	jmp    401fb2 <__gnu_exception_handler@4+0x132>
  402022:	90                   	nop
  402023:	90                   	nop
  402024:	90                   	nop
  402025:	90                   	nop
  402026:	90                   	nop
  402027:	90                   	nop
  402028:	90                   	nop
  402029:	90                   	nop
  40202a:	90                   	nop
  40202b:	90                   	nop
  40202c:	90                   	nop
  40202d:	90                   	nop
  40202e:	90                   	nop
  40202f:	90                   	nop

00402030 <___mingwthr_run_key_dtors.part.0>:
  402030:	55                   	push   %ebp
  402031:	57                   	push   %edi
  402032:	56                   	push   %esi
  402033:	53                   	push   %ebx
  402034:	83 ec 1c             	sub    $0x1c,%esp
  402037:	c7 04 24 b8 53 40 00 	movl   $0x4053b8,(%esp)
  40203e:	ff 15 10 61 40 00    	call   *0x406110
  402044:	8b 1d b0 53 40 00    	mov    0x4053b0,%ebx
  40204a:	83 ec 04             	sub    $0x4,%esp
  40204d:	85 db                	test   %ebx,%ebx
  40204f:	74 34                	je     402085 <___mingwthr_run_key_dtors.part.0+0x55>
  402051:	8b 2d 48 61 40 00    	mov    0x406148,%ebp
  402057:	8b 3d 20 61 40 00    	mov    0x406120,%edi
  40205d:	8d 76 00             	lea    0x0(%esi),%esi
  402060:	8b 03                	mov    (%ebx),%eax
  402062:	89 04 24             	mov    %eax,(%esp)
  402065:	ff d5                	call   *%ebp
  402067:	83 ec 04             	sub    $0x4,%esp
  40206a:	89 c6                	mov    %eax,%esi
  40206c:	ff d7                	call   *%edi
  40206e:	85 c0                	test   %eax,%eax
  402070:	75 0c                	jne    40207e <___mingwthr_run_key_dtors.part.0+0x4e>
  402072:	85 f6                	test   %esi,%esi
  402074:	74 08                	je     40207e <___mingwthr_run_key_dtors.part.0+0x4e>
  402076:	8b 43 04             	mov    0x4(%ebx),%eax
  402079:	89 34 24             	mov    %esi,(%esp)
  40207c:	ff d0                	call   *%eax
  40207e:	8b 5b 08             	mov    0x8(%ebx),%ebx
  402081:	85 db                	test   %ebx,%ebx
  402083:	75 db                	jne    402060 <___mingwthr_run_key_dtors.part.0+0x30>
  402085:	c7 04 24 b8 53 40 00 	movl   $0x4053b8,(%esp)
  40208c:	ff 15 34 61 40 00    	call   *0x406134
  402092:	83 ec 04             	sub    $0x4,%esp
  402095:	83 c4 1c             	add    $0x1c,%esp
  402098:	5b                   	pop    %ebx
  402099:	5e                   	pop    %esi
  40209a:	5f                   	pop    %edi
  40209b:	5d                   	pop    %ebp
  40209c:	c3                   	ret    
  40209d:	8d 76 00             	lea    0x0(%esi),%esi

004020a0 <____w64_mingwthr_add_key_dtor>:
  4020a0:	a1 b4 53 40 00       	mov    0x4053b4,%eax
  4020a5:	85 c0                	test   %eax,%eax
  4020a7:	75 07                	jne    4020b0 <____w64_mingwthr_add_key_dtor+0x10>
  4020a9:	c3                   	ret    
  4020aa:	8d b6 00 00 00 00    	lea    0x0(%esi),%esi
  4020b0:	53                   	push   %ebx
  4020b1:	83 ec 18             	sub    $0x18,%esp
  4020b4:	c7 44 24 04 0c 00 00 	movl   $0xc,0x4(%esp)
  4020bb:	00 
  4020bc:	c7 04 24 01 00 00 00 	movl   $0x1,(%esp)
  4020c3:	e8 2c 06 00 00       	call   4026f4 <_calloc>
  4020c8:	89 c3                	mov    %eax,%ebx
  4020ca:	85 c0                	test   %eax,%eax
  4020cc:	74 42                	je     402110 <____w64_mingwthr_add_key_dtor+0x70>
  4020ce:	8b 44 24 20          	mov    0x20(%esp),%eax
  4020d2:	c7 04 24 b8 53 40 00 	movl   $0x4053b8,(%esp)
  4020d9:	89 03                	mov    %eax,(%ebx)
  4020db:	8b 44 24 24          	mov    0x24(%esp),%eax
  4020df:	89 43 04             	mov    %eax,0x4(%ebx)
  4020e2:	ff 15 10 61 40 00    	call   *0x406110
  4020e8:	a1 b0 53 40 00       	mov    0x4053b0,%eax
  4020ed:	89 1d b0 53 40 00    	mov    %ebx,0x4053b0
  4020f3:	83 ec 04             	sub    $0x4,%esp
  4020f6:	89 43 08             	mov    %eax,0x8(%ebx)
  4020f9:	c7 04 24 b8 53 40 00 	movl   $0x4053b8,(%esp)
  402100:	ff 15 34 61 40 00    	call   *0x406134
  402106:	31 c0                	xor    %eax,%eax
  402108:	83 ec 04             	sub    $0x4,%esp
  40210b:	83 c4 18             	add    $0x18,%esp
  40210e:	5b                   	pop    %ebx
  40210f:	c3                   	ret    
  402110:	83 c8 ff             	or     $0xffffffff,%eax
  402113:	eb f6                	jmp    40210b <____w64_mingwthr_add_key_dtor+0x6b>
  402115:	8d b4 26 00 00 00 00 	lea    0x0(%esi,%eiz,1),%esi
  40211c:	8d 74 26 00          	lea    0x0(%esi,%eiz,1),%esi

00402120 <____w64_mingwthr_remove_key_dtor>:
  402120:	53                   	push   %ebx
  402121:	83 ec 18             	sub    $0x18,%esp
  402124:	a1 b4 53 40 00       	mov    0x4053b4,%eax
  402129:	8b 5c 24 20          	mov    0x20(%esp),%ebx
  40212d:	85 c0                	test   %eax,%eax
  40212f:	75 0f                	jne    402140 <____w64_mingwthr_remove_key_dtor+0x20>
  402131:	83 c4 18             	add    $0x18,%esp
  402134:	31 c0                	xor    %eax,%eax
  402136:	5b                   	pop    %ebx
  402137:	c3                   	ret    
  402138:	8d b4 26 00 00 00 00 	lea    0x0(%esi,%eiz,1),%esi
  40213f:	90                   	nop
  402140:	c7 04 24 b8 53 40 00 	movl   $0x4053b8,(%esp)
  402147:	ff 15 10 61 40 00    	call   *0x406110
  40214d:	a1 b0 53 40 00       	mov    0x4053b0,%eax
  402152:	83 ec 04             	sub    $0x4,%esp
  402155:	85 c0                	test   %eax,%eax
  402157:	74 27                	je     402180 <____w64_mingwthr_remove_key_dtor+0x60>
  402159:	31 c9                	xor    %ecx,%ecx
  40215b:	eb 0b                	jmp    402168 <____w64_mingwthr_remove_key_dtor+0x48>
  40215d:	8d 76 00             	lea    0x0(%esi),%esi
  402160:	89 c1                	mov    %eax,%ecx
  402162:	85 d2                	test   %edx,%edx
  402164:	74 1a                	je     402180 <____w64_mingwthr_remove_key_dtor+0x60>
  402166:	89 d0                	mov    %edx,%eax
  402168:	8b 10                	mov    (%eax),%edx
  40216a:	39 da                	cmp    %ebx,%edx
  40216c:	8b 50 08             	mov    0x8(%eax),%edx
  40216f:	75 ef                	jne    402160 <____w64_mingwthr_remove_key_dtor+0x40>
  402171:	85 c9                	test   %ecx,%ecx
  402173:	74 2b                	je     4021a0 <____w64_mingwthr_remove_key_dtor+0x80>
  402175:	89 51 08             	mov    %edx,0x8(%ecx)
  402178:	89 04 24             	mov    %eax,(%esp)
  40217b:	e8 44 05 00 00       	call   4026c4 <_free>
  402180:	c7 04 24 b8 53 40 00 	movl   $0x4053b8,(%esp)
  402187:	ff 15 34 61 40 00    	call   *0x406134
  40218d:	31 c0                	xor    %eax,%eax
  40218f:	83 ec 04             	sub    $0x4,%esp
  402192:	83 c4 18             	add    $0x18,%esp
  402195:	5b                   	pop    %ebx
  402196:	c3                   	ret    
  402197:	8d b4 26 00 00 00 00 	lea    0x0(%esi,%eiz,1),%esi
  40219e:	66 90                	xchg   %ax,%ax
  4021a0:	89 15 b0 53 40 00    	mov    %edx,0x4053b0
  4021a6:	eb d0                	jmp    402178 <____w64_mingwthr_remove_key_dtor+0x58>
  4021a8:	8d b4 26 00 00 00 00 	lea    0x0(%esi,%eiz,1),%esi
  4021af:	90                   	nop

004021b0 <___mingw_TLScallback>:
  4021b0:	53                   	push   %ebx
  4021b1:	83 ec 18             	sub    $0x18,%esp
  4021b4:	8b 44 24 24          	mov    0x24(%esp),%eax
  4021b8:	83 f8 02             	cmp    $0x2,%eax
  4021bb:	0f 84 bf 00 00 00    	je     402280 <___mingw_TLScallback+0xd0>
  4021c1:	77 25                	ja     4021e8 <___mingw_TLScallback+0x38>
  4021c3:	85 c0                	test   %eax,%eax
  4021c5:	74 51                	je     402218 <___mingw_TLScallback+0x68>
  4021c7:	a1 b4 53 40 00       	mov    0x4053b4,%eax
  4021cc:	85 c0                	test   %eax,%eax
  4021ce:	74 30                	je     402200 <___mingw_TLScallback+0x50>
  4021d0:	c7 05 b4 53 40 00 01 	movl   $0x1,0x4053b4
  4021d7:	00 00 00 
  4021da:	83 c4 18             	add    $0x18,%esp
  4021dd:	b8 01 00 00 00       	mov    $0x1,%eax
  4021e2:	5b                   	pop    %ebx
  4021e3:	c3                   	ret    
  4021e4:	8d 74 26 00          	lea    0x0(%esi,%eiz,1),%esi
  4021e8:	83 f8 03             	cmp    $0x3,%eax
  4021eb:	75 ed                	jne    4021da <___mingw_TLScallback+0x2a>
  4021ed:	a1 b4 53 40 00       	mov    0x4053b4,%eax
  4021f2:	85 c0                	test   %eax,%eax
  4021f4:	74 e4                	je     4021da <___mingw_TLScallback+0x2a>
  4021f6:	e8 35 fe ff ff       	call   402030 <___mingwthr_run_key_dtors.part.0>
  4021fb:	eb dd                	jmp    4021da <___mingw_TLScallback+0x2a>
  4021fd:	8d 76 00             	lea    0x0(%esi),%esi
  402200:	c7 04 24 b8 53 40 00 	movl   $0x4053b8,(%esp)
  402207:	ff 15 30 61 40 00    	call   *0x406130
  40220d:	83 ec 04             	sub    $0x4,%esp
  402210:	eb be                	jmp    4021d0 <___mingw_TLScallback+0x20>
  402212:	8d b6 00 00 00 00    	lea    0x0(%esi),%esi
  402218:	a1 b4 53 40 00       	mov    0x4053b4,%eax
  40221d:	85 c0                	test   %eax,%eax
  40221f:	74 05                	je     402226 <___mingw_TLScallback+0x76>
  402221:	e8 0a fe ff ff       	call   402030 <___mingwthr_run_key_dtors.part.0>
  402226:	a1 b4 53 40 00       	mov    0x4053b4,%eax
  40222b:	83 f8 01             	cmp    $0x1,%eax
  40222e:	75 aa                	jne    4021da <___mingw_TLScallback+0x2a>
  402230:	8b 1d b0 53 40 00    	mov    0x4053b0,%ebx
  402236:	85 db                	test   %ebx,%ebx
  402238:	74 17                	je     402251 <___mingw_TLScallback+0xa1>
  40223a:	8d b6 00 00 00 00    	lea    0x0(%esi),%esi
  402240:	89 d8                	mov    %ebx,%eax
  402242:	8b 5b 08             	mov    0x8(%ebx),%ebx
  402245:	89 04 24             	mov    %eax,(%esp)
  402248:	e8 77 04 00 00       	call   4026c4 <_free>
  40224d:	85 db                	test   %ebx,%ebx
  40224f:	75 ef                	jne    402240 <___mingw_TLScallback+0x90>
  402251:	c7 05 b0 53 40 00 00 	movl   $0x0,0x4053b0
  402258:	00 00 00 
  40225b:	c7 05 b4 53 40 00 00 	movl   $0x0,0x4053b4
  402262:	00 00 00 
  402265:	c7 04 24 b8 53 40 00 	movl   $0x4053b8,(%esp)
  40226c:	ff 15 0c 61 40 00    	call   *0x40610c
  402272:	83 ec 04             	sub    $0x4,%esp
  402275:	e9 60 ff ff ff       	jmp    4021da <___mingw_TLScallback+0x2a>
  40227a:	8d b6 00 00 00 00    	lea    0x0(%esi),%esi
  402280:	e8 5b f7 ff ff       	call   4019e0 <__fpreset>
  402285:	83 c4 18             	add    $0x18,%esp
  402288:	b8 01 00 00 00       	mov    $0x1,%eax
  40228d:	5b                   	pop    %ebx
  40228e:	c3                   	ret    
  40228f:	90                   	nop

00402290 <__ValidateImageBase.part.0>:
  402290:	03 40 3c             	add    0x3c(%eax),%eax
  402293:	81 38 50 45 00 00    	cmpl   $0x4550,(%eax)
  402299:	75 15                	jne    4022b0 <__ValidateImageBase.part.0+0x20>
  40229b:	66 81 78 18 0b 01    	cmpw   $0x10b,0x18(%eax)
  4022a1:	0f 94 c0             	sete   %al
  4022a4:	0f b6 c0             	movzbl %al,%eax
  4022a7:	c3                   	ret    
  4022a8:	8d b4 26 00 00 00 00 	lea    0x0(%esi,%eiz,1),%esi
  4022af:	90                   	nop
  4022b0:	31 c0                	xor    %eax,%eax
  4022b2:	c3                   	ret    
  4022b3:	8d b4 26 00 00 00 00 	lea    0x0(%esi,%eiz,1),%esi
  4022ba:	8d b6 00 00 00 00    	lea    0x0(%esi),%esi

004022c0 <__ValidateImageBase>:
  4022c0:	8b 44 24 04          	mov    0x4(%esp),%eax
  4022c4:	66 81 38 4d 5a       	cmpw   $0x5a4d,(%eax)
  4022c9:	75 05                	jne    4022d0 <__ValidateImageBase+0x10>
  4022cb:	eb c3                	jmp    402290 <__ValidateImageBase.part.0>
  4022cd:	8d 76 00             	lea    0x0(%esi),%esi
  4022d0:	31 c0                	xor    %eax,%eax
  4022d2:	c3                   	ret    
  4022d3:	8d b4 26 00 00 00 00 	lea    0x0(%esi,%eiz,1),%esi
  4022da:	8d b6 00 00 00 00    	lea    0x0(%esi),%esi

004022e0 <__FindPESection>:
  4022e0:	56                   	push   %esi
  4022e1:	53                   	push   %ebx
  4022e2:	8b 54 24 0c          	mov    0xc(%esp),%edx
  4022e6:	8b 5c 24 10          	mov    0x10(%esp),%ebx
  4022ea:	03 52 3c             	add    0x3c(%edx),%edx
  4022ed:	0f b7 42 14          	movzwl 0x14(%edx),%eax
  4022f1:	0f b7 72 06          	movzwl 0x6(%edx),%esi
  4022f5:	8d 44 02 18          	lea    0x18(%edx,%eax,1),%eax
  4022f9:	85 f6                	test   %esi,%esi
  4022fb:	74 1b                	je     402318 <__FindPESection+0x38>
  4022fd:	31 c9                	xor    %ecx,%ecx
  4022ff:	90                   	nop
  402300:	8b 50 0c             	mov    0xc(%eax),%edx
  402303:	39 da                	cmp    %ebx,%edx
  402305:	77 07                	ja     40230e <__FindPESection+0x2e>
  402307:	03 50 08             	add    0x8(%eax),%edx
  40230a:	39 da                	cmp    %ebx,%edx
  40230c:	77 0c                	ja     40231a <__FindPESection+0x3a>
  40230e:	83 c1 01             	add    $0x1,%ecx
  402311:	83 c0 28             	add    $0x28,%eax
  402314:	39 f1                	cmp    %esi,%ecx
  402316:	75 e8                	jne    402300 <__FindPESection+0x20>
  402318:	31 c0                	xor    %eax,%eax
  40231a:	5b                   	pop    %ebx
  40231b:	5e                   	pop    %esi
  40231c:	c3                   	ret    
  40231d:	8d 76 00             	lea    0x0(%esi),%esi

00402320 <__FindPESectionByName>:
  402320:	55                   	push   %ebp
  402321:	57                   	push   %edi
  402322:	56                   	push   %esi
  402323:	53                   	push   %ebx
  402324:	31 db                	xor    %ebx,%ebx
  402326:	83 ec 1c             	sub    $0x1c,%esp
  402329:	8b 7c 24 30          	mov    0x30(%esp),%edi
  40232d:	89 3c 24             	mov    %edi,(%esp)
  402330:	e8 47 03 00 00       	call   40267c <_strlen>
  402335:	83 f8 08             	cmp    $0x8,%eax
  402338:	77 60                	ja     40239a <__FindPESectionByName+0x7a>
  40233a:	66 81 3d 00 00 40 00 	cmpw   $0x5a4d,0x400000
  402341:	4d 5a 
  402343:	75 55                	jne    40239a <__FindPESectionByName+0x7a>
  402345:	b8 00 00 40 00       	mov    $0x400000,%eax
  40234a:	e8 41 ff ff ff       	call   402290 <__ValidateImageBase.part.0>
  40234f:	85 c0                	test   %eax,%eax
  402351:	74 47                	je     40239a <__FindPESectionByName+0x7a>
  402353:	a1 3c 00 40 00       	mov    0x40003c,%eax
  402358:	0f b7 90 14 00 40 00 	movzwl 0x400014(%eax),%edx
  40235f:	0f b7 a8 06 00 40 00 	movzwl 0x400006(%eax),%ebp
  402366:	8d 9c 10 18 00 40 00 	lea    0x400018(%eax,%edx,1),%ebx
  40236d:	85 ed                	test   %ebp,%ebp
  40236f:	74 37                	je     4023a8 <__FindPESectionByName+0x88>
  402371:	31 f6                	xor    %esi,%esi
  402373:	eb 0d                	jmp    402382 <__FindPESectionByName+0x62>
  402375:	8d 76 00             	lea    0x0(%esi),%esi
  402378:	83 c6 01             	add    $0x1,%esi
  40237b:	83 c3 28             	add    $0x28,%ebx
  40237e:	39 ee                	cmp    %ebp,%esi
  402380:	74 26                	je     4023a8 <__FindPESectionByName+0x88>
  402382:	c7 44 24 08 08 00 00 	movl   $0x8,0x8(%esp)
  402389:	00 
  40238a:	89 7c 24 04          	mov    %edi,0x4(%esp)
  40238e:	89 1c 24             	mov    %ebx,(%esp)
  402391:	e8 de 02 00 00       	call   402674 <_strncmp>
  402396:	85 c0                	test   %eax,%eax
  402398:	75 de                	jne    402378 <__FindPESectionByName+0x58>
  40239a:	83 c4 1c             	add    $0x1c,%esp
  40239d:	89 d8                	mov    %ebx,%eax
  40239f:	5b                   	pop    %ebx
  4023a0:	5e                   	pop    %esi
  4023a1:	5f                   	pop    %edi
  4023a2:	5d                   	pop    %ebp
  4023a3:	c3                   	ret    
  4023a4:	8d 74 26 00          	lea    0x0(%esi,%eiz,1),%esi
  4023a8:	83 c4 1c             	add    $0x1c,%esp
  4023ab:	31 db                	xor    %ebx,%ebx
  4023ad:	89 d8                	mov    %ebx,%eax
  4023af:	5b                   	pop    %ebx
  4023b0:	5e                   	pop    %esi
  4023b1:	5f                   	pop    %edi
  4023b2:	5d                   	pop    %ebp
  4023b3:	c3                   	ret    
  4023b4:	8d b4 26 00 00 00 00 	lea    0x0(%esi,%eiz,1),%esi
  4023bb:	8d 74 26 00          	lea    0x0(%esi,%eiz,1),%esi
  4023bf:	90                   	nop

004023c0 <___mingw_GetSectionForAddress>:
  4023c0:	31 d2                	xor    %edx,%edx
  4023c2:	66 81 3d 00 00 40 00 	cmpw   $0x5a4d,0x400000
  4023c9:	4d 5a 
  4023cb:	75 63                	jne    402430 <___mingw_GetSectionForAddress+0x70>
  4023cd:	56                   	push   %esi
  4023ce:	b8 00 00 40 00       	mov    $0x400000,%eax
  4023d3:	53                   	push   %ebx
  4023d4:	e8 b7 fe ff ff       	call   402290 <__ValidateImageBase.part.0>
  4023d9:	85 c0                	test   %eax,%eax
  4023db:	74 4d                	je     40242a <___mingw_GetSectionForAddress+0x6a>
  4023dd:	a1 3c 00 40 00       	mov    0x40003c,%eax
  4023e2:	8b 5c 24 0c          	mov    0xc(%esp),%ebx
  4023e6:	0f b7 90 14 00 40 00 	movzwl 0x400014(%eax),%edx
  4023ed:	0f b7 b0 06 00 40 00 	movzwl 0x400006(%eax),%esi
  4023f4:	81 eb 00 00 40 00    	sub    $0x400000,%ebx
  4023fa:	8d 94 10 18 00 40 00 	lea    0x400018(%eax,%edx,1),%edx
  402401:	85 f6                	test   %esi,%esi
  402403:	74 23                	je     402428 <___mingw_GetSectionForAddress+0x68>
  402405:	31 c9                	xor    %ecx,%ecx
  402407:	8d b4 26 00 00 00 00 	lea    0x0(%esi,%eiz,1),%esi
  40240e:	66 90                	xchg   %ax,%ax
  402410:	8b 42 0c             	mov    0xc(%edx),%eax
  402413:	39 c3                	cmp    %eax,%ebx
  402415:	72 07                	jb     40241e <___mingw_GetSectionForAddress+0x5e>
  402417:	03 42 08             	add    0x8(%edx),%eax
  40241a:	39 c3                	cmp    %eax,%ebx
  40241c:	72 0c                	jb     40242a <___mingw_GetSectionForAddress+0x6a>
  40241e:	83 c1 01             	add    $0x1,%ecx
  402421:	83 c2 28             	add    $0x28,%edx
  402424:	39 f1                	cmp    %esi,%ecx
  402426:	75 e8                	jne    402410 <___mingw_GetSectionForAddress+0x50>
  402428:	31 d2                	xor    %edx,%edx
  40242a:	89 d0                	mov    %edx,%eax
  40242c:	5b                   	pop    %ebx
  40242d:	5e                   	pop    %esi
  40242e:	c3                   	ret    
  40242f:	90                   	nop
  402430:	89 d0                	mov    %edx,%eax
  402432:	c3                   	ret    
  402433:	8d b4 26 00 00 00 00 	lea    0x0(%esi,%eiz,1),%esi
  40243a:	8d b6 00 00 00 00    	lea    0x0(%esi),%esi

00402440 <___mingw_GetSectionCount>:
  402440:	31 c0                	xor    %eax,%eax
  402442:	66 81 3d 00 00 40 00 	cmpw   $0x5a4d,0x400000
  402449:	4d 5a 
  40244b:	75 1a                	jne    402467 <___mingw_GetSectionCount+0x27>
  40244d:	b8 00 00 40 00       	mov    $0x400000,%eax
  402452:	e8 39 fe ff ff       	call   402290 <__ValidateImageBase.part.0>
  402457:	85 c0                	test   %eax,%eax
  402459:	74 0c                	je     402467 <___mingw_GetSectionCount+0x27>
  40245b:	a1 3c 00 40 00       	mov    0x40003c,%eax
  402460:	0f b7 80 06 00 40 00 	movzwl 0x400006(%eax),%eax
  402467:	c3                   	ret    
  402468:	8d b4 26 00 00 00 00 	lea    0x0(%esi,%eiz,1),%esi
  40246f:	90                   	nop

00402470 <__FindPESectionExec>:
  402470:	31 d2                	xor    %edx,%edx
  402472:	53                   	push   %ebx
  402473:	8b 4c 24 08          	mov    0x8(%esp),%ecx
  402477:	66 81 3d 00 00 40 00 	cmpw   $0x5a4d,0x400000
  40247e:	4d 5a 
  402480:	75 47                	jne    4024c9 <__FindPESectionExec+0x59>
  402482:	b8 00 00 40 00       	mov    $0x400000,%eax
  402487:	e8 04 fe ff ff       	call   402290 <__ValidateImageBase.part.0>
  40248c:	85 c0                	test   %eax,%eax
  40248e:	74 39                	je     4024c9 <__FindPESectionExec+0x59>
  402490:	a1 3c 00 40 00       	mov    0x40003c,%eax
  402495:	0f b7 90 14 00 40 00 	movzwl 0x400014(%eax),%edx
  40249c:	0f b7 98 06 00 40 00 	movzwl 0x400006(%eax),%ebx
  4024a3:	8d 94 10 18 00 40 00 	lea    0x400018(%eax,%edx,1),%edx
  4024aa:	85 db                	test   %ebx,%ebx
  4024ac:	74 19                	je     4024c7 <__FindPESectionExec+0x57>
  4024ae:	31 c0                	xor    %eax,%eax
  4024b0:	f6 42 27 20          	testb  $0x20,0x27(%edx)
  4024b4:	74 07                	je     4024bd <__FindPESectionExec+0x4d>
  4024b6:	85 c9                	test   %ecx,%ecx
  4024b8:	74 0f                	je     4024c9 <__FindPESectionExec+0x59>
  4024ba:	83 e9 01             	sub    $0x1,%ecx
  4024bd:	83 c0 01             	add    $0x1,%eax
  4024c0:	83 c2 28             	add    $0x28,%edx
  4024c3:	39 d8                	cmp    %ebx,%eax
  4024c5:	75 e9                	jne    4024b0 <__FindPESectionExec+0x40>
  4024c7:	31 d2                	xor    %edx,%edx
  4024c9:	89 d0                	mov    %edx,%eax
  4024cb:	5b                   	pop    %ebx
  4024cc:	c3                   	ret    
  4024cd:	8d 76 00             	lea    0x0(%esi),%esi

004024d0 <__GetPEImageBase>:
  4024d0:	31 d2                	xor    %edx,%edx
  4024d2:	66 81 3d 00 00 40 00 	cmpw   $0x5a4d,0x400000
  4024d9:	4d 5a 
  4024db:	75 14                	jne    4024f1 <__GetPEImageBase+0x21>
  4024dd:	b8 00 00 40 00       	mov    $0x400000,%eax
  4024e2:	e8 a9 fd ff ff       	call   402290 <__ValidateImageBase.part.0>
  4024e7:	85 c0                	test   %eax,%eax
  4024e9:	b8 00 00 40 00       	mov    $0x400000,%eax
  4024ee:	0f 45 d0             	cmovne %eax,%edx
  4024f1:	89 d0                	mov    %edx,%eax
  4024f3:	c3                   	ret    
  4024f4:	8d b4 26 00 00 00 00 	lea    0x0(%esi,%eiz,1),%esi
  4024fb:	8d 74 26 00          	lea    0x0(%esi,%eiz,1),%esi
  4024ff:	90                   	nop

00402500 <__IsNonwritableInCurrentImage>:
  402500:	31 c0                	xor    %eax,%eax
  402502:	66 81 3d 00 00 40 00 	cmpw   $0x5a4d,0x400000
  402509:	4d 5a 
  40250b:	75 63                	jne    402570 <__IsNonwritableInCurrentImage+0x70>
  40250d:	56                   	push   %esi
  40250e:	b8 00 00 40 00       	mov    $0x400000,%eax
  402513:	53                   	push   %ebx
  402514:	e8 77 fd ff ff       	call   402290 <__ValidateImageBase.part.0>
  402519:	85 c0                	test   %eax,%eax
  40251b:	74 4d                	je     40256a <__IsNonwritableInCurrentImage+0x6a>
  40251d:	8b 15 3c 00 40 00    	mov    0x40003c,%edx
  402523:	8b 5c 24 0c          	mov    0xc(%esp),%ebx
  402527:	0f b7 82 14 00 40 00 	movzwl 0x400014(%edx),%eax
  40252e:	0f b7 b2 06 00 40 00 	movzwl 0x400006(%edx),%esi
  402535:	81 eb 00 00 40 00    	sub    $0x400000,%ebx
  40253b:	8d 84 02 18 00 40 00 	lea    0x400018(%edx,%eax,1),%eax
  402542:	85 f6                	test   %esi,%esi
  402544:	74 22                	je     402568 <__IsNonwritableInCurrentImage+0x68>
  402546:	31 c9                	xor    %ecx,%ecx
  402548:	8d b4 26 00 00 00 00 	lea    0x0(%esi,%eiz,1),%esi
  40254f:	90                   	nop
  402550:	8b 50 0c             	mov    0xc(%eax),%edx
  402553:	39 d3                	cmp    %edx,%ebx
  402555:	72 07                	jb     40255e <__IsNonwritableInCurrentImage+0x5e>
  402557:	03 50 08             	add    0x8(%eax),%edx
  40255a:	39 d3                	cmp    %edx,%ebx
  40255c:	72 1a                	jb     402578 <__IsNonwritableInCurrentImage+0x78>
  40255e:	83 c1 01             	add    $0x1,%ecx
  402561:	83 c0 28             	add    $0x28,%eax
  402564:	39 f1                	cmp    %esi,%ecx
  402566:	75 e8                	jne    402550 <__IsNonwritableInCurrentImage+0x50>
  402568:	31 c0                	xor    %eax,%eax
  40256a:	5b                   	pop    %ebx
  40256b:	5e                   	pop    %esi
  40256c:	c3                   	ret    
  40256d:	8d 76 00             	lea    0x0(%esi),%esi
  402570:	c3                   	ret    
  402571:	8d b4 26 00 00 00 00 	lea    0x0(%esi,%eiz,1),%esi
  402578:	8b 40 24             	mov    0x24(%eax),%eax
  40257b:	5b                   	pop    %ebx
  40257c:	5e                   	pop    %esi
  40257d:	f7 d0                	not    %eax
  40257f:	c1 e8 1f             	shr    $0x1f,%eax
  402582:	c3                   	ret    
  402583:	8d b4 26 00 00 00 00 	lea    0x0(%esi,%eiz,1),%esi
  40258a:	8d b6 00 00 00 00    	lea    0x0(%esi),%esi

00402590 <___mingw_enum_import_library_names>:
  402590:	31 c9                	xor    %ecx,%ecx
  402592:	57                   	push   %edi
  402593:	66 81 3d 00 00 40 00 	cmpw   $0x5a4d,0x400000
  40259a:	4d 5a 
  40259c:	56                   	push   %esi
  40259d:	53                   	push   %ebx
  40259e:	8b 5c 24 10          	mov    0x10(%esp),%ebx
  4025a2:	75 56                	jne    4025fa <___mingw_enum_import_library_names+0x6a>
  4025a4:	b8 00 00 40 00       	mov    $0x400000,%eax
  4025a9:	e8 e2 fc ff ff       	call   402290 <__ValidateImageBase.part.0>
  4025ae:	85 c0                	test   %eax,%eax
  4025b0:	74 48                	je     4025fa <___mingw_enum_import_library_names+0x6a>
  4025b2:	a1 3c 00 40 00       	mov    0x40003c,%eax
  4025b7:	8d b0 00 00 40 00    	lea    0x400000(%eax),%esi
  4025bd:	8b 80 80 00 40 00    	mov    0x400080(%eax),%eax
  4025c3:	85 c0                	test   %eax,%eax
  4025c5:	74 33                	je     4025fa <___mingw_enum_import_library_names+0x6a>
  4025c7:	0f b7 56 14          	movzwl 0x14(%esi),%edx
  4025cb:	0f b7 7e 06          	movzwl 0x6(%esi),%edi
  4025cf:	8d 54 16 18          	lea    0x18(%esi,%edx,1),%edx
  4025d3:	85 ff                	test   %edi,%edi
  4025d5:	74 23                	je     4025fa <___mingw_enum_import_library_names+0x6a>
  4025d7:	31 f6                	xor    %esi,%esi
  4025d9:	8d b4 26 00 00 00 00 	lea    0x0(%esi,%eiz,1),%esi
  4025e0:	8b 4a 0c             	mov    0xc(%edx),%ecx
  4025e3:	39 c8                	cmp    %ecx,%eax
  4025e5:	72 07                	jb     4025ee <___mingw_enum_import_library_names+0x5e>
  4025e7:	03 4a 08             	add    0x8(%edx),%ecx
  4025ea:	39 c8                	cmp    %ecx,%eax
  4025ec:	72 12                	jb     402600 <___mingw_enum_import_library_names+0x70>
  4025ee:	83 c6 01             	add    $0x1,%esi
  4025f1:	83 c2 28             	add    $0x28,%edx
  4025f4:	39 fe                	cmp    %edi,%esi
  4025f6:	75 e8                	jne    4025e0 <___mingw_enum_import_library_names+0x50>
  4025f8:	31 c9                	xor    %ecx,%ecx
  4025fa:	5b                   	pop    %ebx
  4025fb:	89 c8                	mov    %ecx,%eax
  4025fd:	5e                   	pop    %esi
  4025fe:	5f                   	pop    %edi
  4025ff:	c3                   	ret    
  402600:	05 00 00 40 00       	add    $0x400000,%eax
  402605:	eb 0f                	jmp    402616 <___mingw_enum_import_library_names+0x86>
  402607:	8d b4 26 00 00 00 00 	lea    0x0(%esi,%eiz,1),%esi
  40260e:	66 90                	xchg   %ax,%ax
  402610:	83 eb 01             	sub    $0x1,%ebx
  402613:	83 c0 14             	add    $0x14,%eax
  402616:	8b 48 04             	mov    0x4(%eax),%ecx
  402619:	85 c9                	test   %ecx,%ecx
  40261b:	75 07                	jne    402624 <___mingw_enum_import_library_names+0x94>
  40261d:	8b 50 0c             	mov    0xc(%eax),%edx
  402620:	85 d2                	test   %edx,%edx
  402622:	74 d4                	je     4025f8 <___mingw_enum_import_library_names+0x68>
  402624:	85 db                	test   %ebx,%ebx
  402626:	7f e8                	jg     402610 <___mingw_enum_import_library_names+0x80>
  402628:	8b 48 0c             	mov    0xc(%eax),%ecx
  40262b:	5b                   	pop    %ebx
  40262c:	5e                   	pop    %esi
  40262d:	5f                   	pop    %edi
  40262e:	81 c1 00 00 40 00    	add    $0x400000,%ecx
  402634:	89 c8                	mov    %ecx,%eax
  402636:	c3                   	ret    
  402637:	90                   	nop
  402638:	90                   	nop
  402639:	90                   	nop
  40263a:	90                   	nop
  40263b:	90                   	nop
  40263c:	90                   	nop
  40263d:	90                   	nop
  40263e:	90                   	nop
  40263f:	90                   	nop

00402640 <___chkstk_ms>:
  402640:	51                   	push   %ecx
  402641:	50                   	push   %eax
  402642:	3d 00 10 00 00       	cmp    $0x1000,%eax
  402647:	8d 4c 24 0c          	lea    0xc(%esp),%ecx
  40264b:	72 15                	jb     402662 <___chkstk_ms+0x22>
  40264d:	81 e9 00 10 00 00    	sub    $0x1000,%ecx
  402653:	83 09 00             	orl    $0x0,(%ecx)
  402656:	2d 00 10 00 00       	sub    $0x1000,%eax
  40265b:	3d 00 10 00 00       	cmp    $0x1000,%eax
  402660:	77 eb                	ja     40264d <___chkstk_ms+0xd>
  402662:	29 c1                	sub    %eax,%ecx
  402664:	83 09 00             	orl    $0x0,(%ecx)
  402667:	58                   	pop    %eax
  402668:	59                   	pop    %ecx
  402669:	c3                   	ret    
  40266a:	90                   	nop
  40266b:	90                   	nop

0040266c <_vfprintf>:
  40266c:	ff 25 d4 61 40 00    	jmp    *0x4061d4
  402672:	90                   	nop
  402673:	90                   	nop

00402674 <_strncmp>:
  402674:	ff 25 d0 61 40 00    	jmp    *0x4061d0
  40267a:	90                   	nop
  40267b:	90                   	nop

0040267c <_strlen>:
  40267c:	ff 25 cc 61 40 00    	jmp    *0x4061cc
  402682:	90                   	nop
  402683:	90                   	nop

00402684 <_signal>:
  402684:	ff 25 c8 61 40 00    	jmp    *0x4061c8
  40268a:	90                   	nop
  40268b:	90                   	nop

0040268c <_setvbuf>:
  40268c:	ff 25 c4 61 40 00    	jmp    *0x4061c4
  402692:	90                   	nop
  402693:	90                   	nop

00402694 <_puts>:
  402694:	ff 25 c0 61 40 00    	jmp    *0x4061c0
  40269a:	90                   	nop
  40269b:	90                   	nop

0040269c <_printf>:
  40269c:	ff 25 bc 61 40 00    	jmp    *0x4061bc
  4026a2:	90                   	nop
  4026a3:	90                   	nop

004026a4 <_memcpy>:
  4026a4:	ff 25 b8 61 40 00    	jmp    *0x4061b8
  4026aa:	90                   	nop
  4026ab:	90                   	nop

004026ac <_malloc>:
  4026ac:	ff 25 b4 61 40 00    	jmp    *0x4061b4
  4026b2:	90                   	nop
  4026b3:	90                   	nop

004026b4 <_gets>:
  4026b4:	ff 25 b0 61 40 00    	jmp    *0x4061b0
  4026ba:	90                   	nop
  4026bb:	90                   	nop

004026bc <_fwrite>:
  4026bc:	ff 25 ac 61 40 00    	jmp    *0x4061ac
  4026c2:	90                   	nop
  4026c3:	90                   	nop

004026c4 <_free>:
  4026c4:	ff 25 a8 61 40 00    	jmp    *0x4061a8
  4026ca:	90                   	nop
  4026cb:	90                   	nop

004026cc <_fprintf>:
  4026cc:	ff 25 a4 61 40 00    	jmp    *0x4061a4
  4026d2:	90                   	nop
  4026d3:	90                   	nop

004026d4 <_fopen>:
  4026d4:	ff 25 a0 61 40 00    	jmp    *0x4061a0
  4026da:	90                   	nop
  4026db:	90                   	nop

004026dc <_fgets>:
  4026dc:	ff 25 9c 61 40 00    	jmp    *0x40619c
  4026e2:	90                   	nop
  4026e3:	90                   	nop

004026e4 <_fflush>:
  4026e4:	ff 25 98 61 40 00    	jmp    *0x406198
  4026ea:	90                   	nop
  4026eb:	90                   	nop

004026ec <_exit>:
  4026ec:	ff 25 94 61 40 00    	jmp    *0x406194
  4026f2:	90                   	nop
  4026f3:	90                   	nop

004026f4 <_calloc>:
  4026f4:	ff 25 90 61 40 00    	jmp    *0x406190
  4026fa:	90                   	nop
  4026fb:	90                   	nop

004026fc <_abort>:
  4026fc:	ff 25 8c 61 40 00    	jmp    *0x40618c
  402702:	90                   	nop
  402703:	90                   	nop

00402704 <__onexit>:
  402704:	ff 25 88 61 40 00    	jmp    *0x406188
  40270a:	90                   	nop
  40270b:	90                   	nop

0040270c <__initterm>:
  40270c:	ff 25 80 61 40 00    	jmp    *0x406180
  402712:	90                   	nop
  402713:	90                   	nop

00402714 <__cexit>:
  402714:	ff 25 7c 61 40 00    	jmp    *0x40617c
  40271a:	90                   	nop
  40271b:	90                   	nop

0040271c <__amsg_exit>:
  40271c:	ff 25 78 61 40 00    	jmp    *0x406178
  402722:	90                   	nop
  402723:	90                   	nop

00402724 <___setusermatherr>:
  402724:	ff 25 74 61 40 00    	jmp    *0x406174
  40272a:	90                   	nop
  40272b:	90                   	nop

0040272c <___set_app_type>:
  40272c:	ff 25 70 61 40 00    	jmp    *0x406170
  402732:	90                   	nop
  402733:	90                   	nop

00402734 <___p__fmode>:
  402734:	ff 25 6c 61 40 00    	jmp    *0x40616c
  40273a:	90                   	nop
  40273b:	90                   	nop

0040273c <___p__acmdln>:
  40273c:	ff 25 68 61 40 00    	jmp    *0x406168
  402742:	90                   	nop
  402743:	90                   	nop

00402744 <___getmainargs>:
  402744:	ff 25 5c 61 40 00    	jmp    *0x40615c
  40274a:	90                   	nop
  40274b:	90                   	nop
  40274c:	66 90                	xchg   %ax,%ax
  40274e:	66 90                	xchg   %ax,%ax

00402750 <___acrt_iob_func>:
  402750:	8b 44 24 04          	mov    0x4(%esp),%eax
  402754:	c1 e0 05             	shl    $0x5,%eax
  402757:	03 05 84 61 40 00    	add    0x406184,%eax
  40275d:	c3                   	ret    
  40275e:	90                   	nop
  40275f:	90                   	nop

00402760 <__get_invalid_parameter_handler>:
  402760:	a1 d4 53 40 00       	mov    0x4053d4,%eax
  402765:	c3                   	ret    
  402766:	8d b4 26 00 00 00 00 	lea    0x0(%esi,%eiz,1),%esi
  40276d:	8d 76 00             	lea    0x0(%esi),%esi

00402770 <__set_invalid_parameter_handler>:
  402770:	8b 44 24 04          	mov    0x4(%esp),%eax
  402774:	87 05 d4 53 40 00    	xchg   %eax,0x4053d4
  40277a:	c3                   	ret    
  40277b:	90                   	nop
  40277c:	90                   	nop
  40277d:	90                   	nop
  40277e:	90                   	nop
  40277f:	90                   	nop

00402780 <_register_frame_ctor>:
  402780:	e9 7b ed ff ff       	jmp    401500 <___gcc_register_frame>
  402785:	90                   	nop
  402786:	90                   	nop
  402787:	90                   	nop
  402788:	90                   	nop
  402789:	90                   	nop
  40278a:	90                   	nop
  40278b:	90                   	nop
  40278c:	90                   	nop
  40278d:	90                   	nop
  40278e:	90                   	nop
  40278f:	90                   	nop

00402790 <__CTOR_LIST__>:
  402790:	ff                   	(bad)  
  402791:	ff                   	(bad)  
  402792:	ff                   	(bad)  
  402793:	ff                   	.byte 0xff

00402794 <.ctors.65535>:
  402794:	80 27 40             	andb   $0x40,(%edi)
  402797:	00 00                	add    %al,(%eax)
  402799:	00 00                	add    %al,(%eax)
	...

0040279c <__DTOR_LIST__>:
  40279c:	ff                   	(bad)  
  40279d:	ff                   	(bad)  
  40279e:	ff                   	(bad)  
  40279f:	ff 00                	incl   (%eax)
  4027a1:	00 00                	add    %al,(%eax)
	...
